ARM GAS  C:\Users\ashgr\AppData\Local\Temp\ccMnbzlT.s 			page 1


   1              		.cpu cortex-m7
   2              		.eabi_attribute 28, 1
   3              		.eabi_attribute 20, 1
   4              		.eabi_attribute 21, 1
   5              		.eabi_attribute 23, 3
   6              		.eabi_attribute 24, 1
   7              		.eabi_attribute 25, 1
   8              		.eabi_attribute 26, 1
   9              		.eabi_attribute 30, 2
  10              		.eabi_attribute 34, 1
  11              		.eabi_attribute 18, 4
  12              		.file	"sego.cpp"
  13              		.text
  14              	.Ltext0:
  15              		.cfi_sections	.debug_frame
  16              		.section	.text._ZN5daisy9ParameterD2Ev,"axG",%progbits,_ZN5daisy9ParameterD5Ev,comdat
  17              		.align	1
  18              		.p2align 2,,3
  19              		.weak	_ZN5daisy9ParameterD2Ev
  20              		.arch armv7e-m
  21              		.syntax unified
  22              		.thumb
  23              		.thumb_func
  24              		.fpu fpv5-d16
  26              	_ZN5daisy9ParameterD2Ev:
  27              	.LVL0:
  28              	.LFB1586:
  29              		.file 1 "../../libdaisy/src/hid/parameter.h"
   1:../../libdaisy/src/hid/parameter.h **** #pragma once
   2:../../libdaisy/src/hid/parameter.h **** #include <stdint.h>
   3:../../libdaisy/src/hid/parameter.h **** #include "hid/ctrl.h"
   4:../../libdaisy/src/hid/parameter.h **** 
   5:../../libdaisy/src/hid/parameter.h **** namespace daisy
   6:../../libdaisy/src/hid/parameter.h **** {
   7:../../libdaisy/src/hid/parameter.h **** /** @addtogroup controls
   8:../../libdaisy/src/hid/parameter.h ****     @{
   9:../../libdaisy/src/hid/parameter.h **** */
  10:../../libdaisy/src/hid/parameter.h **** 
  11:../../libdaisy/src/hid/parameter.h **** /**      Simple parameter mapping tool that takes a 0-1 input from an hid_ctrl. */
  12:../../libdaisy/src/hid/parameter.h **** class Parameter
  13:../../libdaisy/src/hid/parameter.h **** {
  14:../../libdaisy/src/hid/parameter.h ****   public:
  15:../../libdaisy/src/hid/parameter.h ****     /** Curves are applied to the output signal */
  16:../../libdaisy/src/hid/parameter.h ****     enum Curve
  17:../../libdaisy/src/hid/parameter.h ****     {
  18:../../libdaisy/src/hid/parameter.h ****         LINEAR,      /**< Linear curve */
  19:../../libdaisy/src/hid/parameter.h ****         EXPONENTIAL, /**< Exponential curve */
  20:../../libdaisy/src/hid/parameter.h ****         LOGARITHMIC, /**<  Logarithmic curve */
  21:../../libdaisy/src/hid/parameter.h ****         CUBE,        /**< Cubic curve */
  22:../../libdaisy/src/hid/parameter.h ****         LAST,        /**< Final enum element. */
  23:../../libdaisy/src/hid/parameter.h ****     };
  24:../../libdaisy/src/hid/parameter.h ****     /** Constructor */
  25:../../libdaisy/src/hid/parameter.h ****     Parameter() {}
  26:../../libdaisy/src/hid/parameter.h ****     /** Destructor */
  27:../../libdaisy/src/hid/parameter.h ****     ~Parameter() {}
  30              		.loc 1 27 5 view -0
  31              		.cfi_startproc
ARM GAS  C:\Users\ashgr\AppData\Local\Temp\ccMnbzlT.s 			page 2


  32              		@ args = 0, pretend = 0, frame = 0
  33              		@ frame_needed = 0, uses_anonymous_args = 0
  34              		@ link register save eliminated.
  35              	.LBB495:
  36              	.LBI495:
  37              		.file 2 "../../libdaisy/src/hid/ctrl.h"
   1:../../libdaisy/src/hid/ctrl.h **** #pragma once
   2:../../libdaisy/src/hid/ctrl.h **** #ifndef DSY_KNOB_H
   3:../../libdaisy/src/hid/ctrl.h **** #define DSY_KNOB_H /**< & */
   4:../../libdaisy/src/hid/ctrl.h **** #include <stdint.h>
   5:../../libdaisy/src/hid/ctrl.h **** 
   6:../../libdaisy/src/hid/ctrl.h **** #ifdef __cplusplus
   7:../../libdaisy/src/hid/ctrl.h **** namespace daisy
   8:../../libdaisy/src/hid/ctrl.h **** {
   9:../../libdaisy/src/hid/ctrl.h **** /**
  10:../../libdaisy/src/hid/ctrl.h ****     @brief Hardware Interface for control inputs \n 
  11:../../libdaisy/src/hid/ctrl.h ****     Primarily designed for ADC input controls such as \n 
  12:../../libdaisy/src/hid/ctrl.h ****     potentiometers, and control voltage. \n 
  13:../../libdaisy/src/hid/ctrl.h ****     @author Stephen Hensley
  14:../../libdaisy/src/hid/ctrl.h ****     @date November 2019
  15:../../libdaisy/src/hid/ctrl.h ****     @ingroup controls
  16:../../libdaisy/src/hid/ctrl.h **** */
  17:../../libdaisy/src/hid/ctrl.h **** class AnalogControl
  18:../../libdaisy/src/hid/ctrl.h **** {
  19:../../libdaisy/src/hid/ctrl.h ****   public:
  20:../../libdaisy/src/hid/ctrl.h ****     /** Constructor */
  21:../../libdaisy/src/hid/ctrl.h ****     AnalogControl() {}
  22:../../libdaisy/src/hid/ctrl.h ****     /** destructor */
  23:../../libdaisy/src/hid/ctrl.h ****     ~AnalogControl() {}
  38              		.loc 2 23 5 view .LVU1
  39              		.loc 2 23 5 is_stmt 0 view .LVU2
  40              	.LBE495:
  41              		.loc 1 27 19 view .LVU3
  42 0000 7047     		bx	lr
  43              		.cfi_endproc
  44              	.LFE1586:
  46              		.weak	_ZN5daisy9ParameterD1Ev
  47              		.thumb_set _ZN5daisy9ParameterD1Ev,_ZN5daisy9ParameterD2Ev
  48 0002 00BF     		.section	.text._ZN5daisy11CsoHardwareD2Ev,"axG",%progbits,_ZN5daisy11CsoHardwareD5Ev,comdat
  49              		.align	1
  50              		.p2align 2,,3
  51              		.weak	_ZN5daisy11CsoHardwareD2Ev
  52              		.syntax unified
  53              		.thumb
  54              		.thumb_func
  55              		.fpu fpv5-d16
  57              	_ZN5daisy11CsoHardwareD2Ev:
  58              	.LVL1:
  59              	.LFB2048:
  60              		.file 3 "../../libdaisy/src/cso_hardware.h"
   1:../../libdaisy/src/cso_hardware.h **** #pragma once
   2:../../libdaisy/src/cso_hardware.h **** #ifndef CSO_HARDWARE_BSP_H
   3:../../libdaisy/src/cso_hardware.h **** #define CSO_HARDWARE_BSP_H
   4:../../libdaisy/src/cso_hardware.h **** 
   5:../../libdaisy/src/cso_hardware.h **** #include "daisy_seed.h"
   6:../../libdaisy/src/cso_hardware.h **** 
   7:../../libdaisy/src/cso_hardware.h **** namespace daisy
ARM GAS  C:\Users\ashgr\AppData\Local\Temp\ccMnbzlT.s 			page 3


   8:../../libdaisy/src/cso_hardware.h **** {
   9:../../libdaisy/src/cso_hardware.h **** class CsoHardware
  10:../../libdaisy/src/cso_hardware.h **** {
  11:../../libdaisy/src/cso_hardware.h ****   public:
  12:../../libdaisy/src/cso_hardware.h **** 
  13:../../libdaisy/src/cso_hardware.h ****     enum Sw
  14:../../libdaisy/src/cso_hardware.h ****     {
  15:../../libdaisy/src/cso_hardware.h ****         SW_1,
  16:../../libdaisy/src/cso_hardware.h ****         SW_2,
  17:../../libdaisy/src/cso_hardware.h ****         SW_3,
  18:../../libdaisy/src/cso_hardware.h ****         SW_4,
  19:../../libdaisy/src/cso_hardware.h ****         SW_LAST,
  20:../../libdaisy/src/cso_hardware.h ****     };
  21:../../libdaisy/src/cso_hardware.h **** 
  22:../../libdaisy/src/cso_hardware.h ****     enum Knob
  23:../../libdaisy/src/cso_hardware.h ****     {
  24:../../libdaisy/src/cso_hardware.h ****         KNOB_1,
  25:../../libdaisy/src/cso_hardware.h ****         KNOB_2,
  26:../../libdaisy/src/cso_hardware.h ****         KNOB_3,
  27:../../libdaisy/src/cso_hardware.h ****         KNOB_4,
  28:../../libdaisy/src/cso_hardware.h ****         KNOB_5,
  29:../../libdaisy/src/cso_hardware.h ****         KNOB_6,
  30:../../libdaisy/src/cso_hardware.h ****         KNOB_7,
  31:../../libdaisy/src/cso_hardware.h ****         KNOB_8,
  32:../../libdaisy/src/cso_hardware.h ****         KNOB_9,
  33:../../libdaisy/src/cso_hardware.h ****         KNOB_10,
  34:../../libdaisy/src/cso_hardware.h ****         KNOB_11,
  35:../../libdaisy/src/cso_hardware.h ****         KNOB_12,
  36:../../libdaisy/src/cso_hardware.h ****         KNOB_LAST,
  37:../../libdaisy/src/cso_hardware.h ****     };
  38:../../libdaisy/src/cso_hardware.h **** 
  39:../../libdaisy/src/cso_hardware.h ****     CsoHardware() {}
  40:../../libdaisy/src/cso_hardware.h ****     ~CsoHardware() {}
  61              		.loc 3 40 5 is_stmt 1 view -0
  62              		.cfi_startproc
  63              		@ args = 0, pretend = 0, frame = 0
  64              		@ frame_needed = 0, uses_anonymous_args = 0
  65              		@ link register save eliminated.
  66              	.LBB496:
  67              	.LBI496:
  68              		.file 4 "../../libdaisy/src/hid/midi.h"
   1:../../libdaisy/src/hid/midi.h **** #pragma once
   2:../../libdaisy/src/hid/midi.h **** #ifndef DSY_MIDI_H
   3:../../libdaisy/src/hid/midi.h **** #define DSY_MIDI_H
   4:../../libdaisy/src/hid/midi.h **** 
   5:../../libdaisy/src/hid/midi.h **** // TODO: make this adjustable
   6:../../libdaisy/src/hid/midi.h **** #define SYSEX_BUFFER_LEN 128
   7:../../libdaisy/src/hid/midi.h **** 
   8:../../libdaisy/src/hid/midi.h **** #include <stdint.h>
   9:../../libdaisy/src/hid/midi.h **** #include <stdlib.h>
  10:../../libdaisy/src/hid/midi.h **** #include "per/uart.h"
  11:../../libdaisy/src/hid/midi.h **** #include "util/ringbuffer.h"
  12:../../libdaisy/src/hid/midi.h **** #include "hid/MidiEvent.h"
  13:../../libdaisy/src/hid/midi.h **** #include "sys/system.h"
  14:../../libdaisy/src/hid/midi.h **** 
  15:../../libdaisy/src/hid/midi.h **** namespace daisy
  16:../../libdaisy/src/hid/midi.h **** {
ARM GAS  C:\Users\ashgr\AppData\Local\Temp\ccMnbzlT.s 			page 4


  17:../../libdaisy/src/hid/midi.h **** /** @addtogroup external 
  18:../../libdaisy/src/hid/midi.h ****     @{ 
  19:../../libdaisy/src/hid/midi.h **** */
  20:../../libdaisy/src/hid/midi.h **** 
  21:../../libdaisy/src/hid/midi.h **** class MidiUartTransport
  22:../../libdaisy/src/hid/midi.h **** {
  23:../../libdaisy/src/hid/midi.h ****   public:
  24:../../libdaisy/src/hid/midi.h ****     MidiUartTransport() {}
  25:../../libdaisy/src/hid/midi.h ****     ~MidiUartTransport() {}
  26:../../libdaisy/src/hid/midi.h **** 
  27:../../libdaisy/src/hid/midi.h ****     struct Config
  28:../../libdaisy/src/hid/midi.h ****     {
  29:../../libdaisy/src/hid/midi.h ****         UartHandler::Config::Peripheral periph;
  30:../../libdaisy/src/hid/midi.h ****         dsy_gpio_pin                    rx;
  31:../../libdaisy/src/hid/midi.h ****         dsy_gpio_pin                    tx;
  32:../../libdaisy/src/hid/midi.h **** 
  33:../../libdaisy/src/hid/midi.h ****         Config()
  34:../../libdaisy/src/hid/midi.h ****         {
  35:../../libdaisy/src/hid/midi.h ****             periph = UartHandler::Config::Peripheral::USART_1;
  36:../../libdaisy/src/hid/midi.h ****             rx     = {DSY_GPIOB, 7};
  37:../../libdaisy/src/hid/midi.h ****             tx     = {DSY_GPIOB, 6};
  38:../../libdaisy/src/hid/midi.h ****         }
  39:../../libdaisy/src/hid/midi.h ****     };
  40:../../libdaisy/src/hid/midi.h **** 
  41:../../libdaisy/src/hid/midi.h ****     inline void Init(Config config)
  42:../../libdaisy/src/hid/midi.h ****     {
  43:../../libdaisy/src/hid/midi.h ****         UartHandler::Config uart_config;
  44:../../libdaisy/src/hid/midi.h **** 
  45:../../libdaisy/src/hid/midi.h ****         //defaults
  46:../../libdaisy/src/hid/midi.h ****         uart_config.baudrate   = 31250;
  47:../../libdaisy/src/hid/midi.h ****         uart_config.stopbits   = UartHandler::Config::StopBits::BITS_1;
  48:../../libdaisy/src/hid/midi.h ****         uart_config.parity     = UartHandler::Config::Parity::NONE;
  49:../../libdaisy/src/hid/midi.h ****         uart_config.mode       = UartHandler::Config::Mode::TX_RX;
  50:../../libdaisy/src/hid/midi.h ****         uart_config.wordlength = UartHandler::Config::WordLength::BITS_8;
  51:../../libdaisy/src/hid/midi.h **** 
  52:../../libdaisy/src/hid/midi.h ****         //user settings
  53:../../libdaisy/src/hid/midi.h ****         uart_config.periph        = config.periph;
  54:../../libdaisy/src/hid/midi.h ****         uart_config.pin_config.rx = config.rx;
  55:../../libdaisy/src/hid/midi.h ****         uart_config.pin_config.tx = config.tx;
  56:../../libdaisy/src/hid/midi.h **** 
  57:../../libdaisy/src/hid/midi.h ****         uart_.Init(uart_config);
  58:../../libdaisy/src/hid/midi.h ****     }
  59:../../libdaisy/src/hid/midi.h **** 
  60:../../libdaisy/src/hid/midi.h ****     inline void    StartRx() { uart_.StartRx(); }
  61:../../libdaisy/src/hid/midi.h ****     inline size_t  Readable() { return uart_.Readable(); }
  62:../../libdaisy/src/hid/midi.h ****     inline uint8_t Rx() { return uart_.PopRx(); }
  63:../../libdaisy/src/hid/midi.h ****     inline bool    RxActive() { return uart_.RxActive(); }
  64:../../libdaisy/src/hid/midi.h ****     inline void    FlushRx() { uart_.FlushRx(); }
  65:../../libdaisy/src/hid/midi.h ****     inline void    Tx(uint8_t* buff, size_t size) { uart_.PollTx(buff, size); }
  66:../../libdaisy/src/hid/midi.h **** 
  67:../../libdaisy/src/hid/midi.h ****   private:
  68:../../libdaisy/src/hid/midi.h ****     UartHandler uart_;
  69:../../libdaisy/src/hid/midi.h **** };
  70:../../libdaisy/src/hid/midi.h **** 
  71:../../libdaisy/src/hid/midi.h **** /** 
  72:../../libdaisy/src/hid/midi.h ****     @brief Simple MIDI Handler \n 
  73:../../libdaisy/src/hid/midi.h ****     Parses bytes from an input into valid MidiEvents. \n 
ARM GAS  C:\Users\ashgr\AppData\Local\Temp\ccMnbzlT.s 			page 5


  74:../../libdaisy/src/hid/midi.h ****     The MidiEvents fill a FIFO queue that the user can pop messages from.
  75:../../libdaisy/src/hid/midi.h ****     @author shensley
  76:../../libdaisy/src/hid/midi.h ****     @date March 2020
  77:../../libdaisy/src/hid/midi.h **** */
  78:../../libdaisy/src/hid/midi.h **** template <typename Transport>
  79:../../libdaisy/src/hid/midi.h **** class MidiHandler
  80:../../libdaisy/src/hid/midi.h **** {
  81:../../libdaisy/src/hid/midi.h ****   public:
  82:../../libdaisy/src/hid/midi.h ****     MidiHandler() {}
  83:../../libdaisy/src/hid/midi.h ****     ~MidiHandler() {}
  69              		.loc 4 83 5 view .LVU5
  70              	.LBB497:
  71              	.LBI497:
  25:../../libdaisy/src/hid/midi.h **** 
  72              		.loc 4 25 5 view .LVU6
  25:../../libdaisy/src/hid/midi.h **** 
  73              		.loc 4 25 5 is_stmt 0 view .LVU7
  74              	.LBE497:
  75              	.LBE496:
  76              	.LBB498:
  77              	.LBI498:
  78              		.file 5 "../../libdaisy/src/hid/rgb_led.h"
   1:../../libdaisy/src/hid/rgb_led.h **** #pragma once
   2:../../libdaisy/src/hid/rgb_led.h **** #ifndef DSY_RGB_LED_H
   3:../../libdaisy/src/hid/rgb_led.h **** #define DSY_RGB_LED_H
   4:../../libdaisy/src/hid/rgb_led.h **** #include "hid/led.h"
   5:../../libdaisy/src/hid/rgb_led.h **** #include "util/color.h"
   6:../../libdaisy/src/hid/rgb_led.h **** 
   7:../../libdaisy/src/hid/rgb_led.h **** namespace daisy
   8:../../libdaisy/src/hid/rgb_led.h **** {
   9:../../libdaisy/src/hid/rgb_led.h **** /** @addtogroup feedback
  10:../../libdaisy/src/hid/rgb_led.h ****     @{
  11:../../libdaisy/src/hid/rgb_led.h **** */
  12:../../libdaisy/src/hid/rgb_led.h **** 
  13:../../libdaisy/src/hid/rgb_led.h **** /** 3x LEDs configured as an RGB for ease of use. */
  14:../../libdaisy/src/hid/rgb_led.h **** class RgbLed
  15:../../libdaisy/src/hid/rgb_led.h **** {
  16:../../libdaisy/src/hid/rgb_led.h ****   public:
  17:../../libdaisy/src/hid/rgb_led.h ****     RgbLed() {}
  18:../../libdaisy/src/hid/rgb_led.h ****     ~RgbLed() {}
  79              		.loc 5 18 5 is_stmt 1 view .LVU8
  80              	.LBB499:
  81              	.LBI499:
  82              		.file 6 "../../libdaisy/src/hid/led.h"
   1:../../libdaisy/src/hid/led.h **** 
   2:../../libdaisy/src/hid/led.h **** #pragma once
   3:../../libdaisy/src/hid/led.h **** #ifndef DSY_LED_H
   4:../../libdaisy/src/hid/led.h **** #define DSY_LED_H
   5:../../libdaisy/src/hid/led.h **** #include "daisy_core.h"
   6:../../libdaisy/src/hid/led.h **** #include "per/gpio.h"
   7:../../libdaisy/src/hid/led.h **** 
   8:../../libdaisy/src/hid/led.h **** /* TODO - Get this set up to work with the dev_leddriver stuff as well
   9:../../libdaisy/src/hid/led.h **** - Setup Hardware PWM for pins that have it
  10:../../libdaisy/src/hid/led.h **** */
  11:../../libdaisy/src/hid/led.h **** 
  12:../../libdaisy/src/hid/led.h **** namespace daisy
  13:../../libdaisy/src/hid/led.h **** {
ARM GAS  C:\Users\ashgr\AppData\Local\Temp\ccMnbzlT.s 			page 6


  14:../../libdaisy/src/hid/led.h **** /**
  15:../../libdaisy/src/hid/led.h ****     @brief LED Class providing simple Software PWM ability, etc \n 
  16:../../libdaisy/src/hid/led.h ****     Eventually this will work with hardware PWM, and external LED Driver devices as well.
  17:../../libdaisy/src/hid/led.h ****     @author shensley
  18:../../libdaisy/src/hid/led.h ****     @date March 2020
  19:../../libdaisy/src/hid/led.h ****     @ingroup feedback
  20:../../libdaisy/src/hid/led.h **** */
  21:../../libdaisy/src/hid/led.h **** class Led
  22:../../libdaisy/src/hid/led.h **** {
  23:../../libdaisy/src/hid/led.h ****   public:
  24:../../libdaisy/src/hid/led.h ****     Led() {}
  25:../../libdaisy/src/hid/led.h ****     ~Led() {}
  83              		.loc 6 25 5 view .LVU9
  84              		.loc 6 25 5 is_stmt 0 view .LVU10
  85              	.LBE499:
  86              	.LBB500:
  87              	.LBI500:
  88              		.loc 6 25 5 is_stmt 1 view .LVU11
  89              		.loc 6 25 5 is_stmt 0 view .LVU12
  90              	.LBE500:
  91              	.LBB501:
  92              	.LBI501:
  93              		.loc 6 25 5 is_stmt 1 view .LVU13
  94              		.loc 6 25 5 is_stmt 0 view .LVU14
  95              	.LBE501:
  96              	.LBE498:
  97              	.LBB502:
  98              	.LBI502:
  99              		.loc 5 18 5 is_stmt 1 view .LVU15
 100              	.LBB503:
 101              	.LBI503:
 102              		.loc 6 25 5 view .LVU16
 103              		.loc 6 25 5 is_stmt 0 view .LVU17
 104              	.LBE503:
 105              	.LBB504:
 106              	.LBI504:
 107              		.loc 6 25 5 is_stmt 1 view .LVU18
 108              		.loc 6 25 5 is_stmt 0 view .LVU19
 109              	.LBE504:
 110              	.LBB505:
 111              	.LBI505:
 112              		.loc 6 25 5 is_stmt 1 view .LVU20
 113              		.loc 6 25 5 is_stmt 0 view .LVU21
 114              	.LBE505:
 115              	.LBE502:
 116              	.LBB506:
 117              	.LBI506:
 118              		.file 7 "../../libdaisy/src/hid/switch.h"
   1:../../libdaisy/src/hid/switch.h **** #pragma once
   2:../../libdaisy/src/hid/switch.h **** #ifndef DSY_SWITCH_H
   3:../../libdaisy/src/hid/switch.h **** #define DSY_SWITCH_H
   4:../../libdaisy/src/hid/switch.h **** #include "daisy_core.h"
   5:../../libdaisy/src/hid/switch.h **** #include "per/gpio.h"
   6:../../libdaisy/src/hid/switch.h **** #include "sys/system.h"
   7:../../libdaisy/src/hid/switch.h **** 
   8:../../libdaisy/src/hid/switch.h **** namespace daisy
   9:../../libdaisy/src/hid/switch.h **** {
ARM GAS  C:\Users\ashgr\AppData\Local\Temp\ccMnbzlT.s 			page 7


  10:../../libdaisy/src/hid/switch.h **** /** 
  11:../../libdaisy/src/hid/switch.h ****     Generic Class for handling momentary/latching switches \n 
  12:../../libdaisy/src/hid/switch.h ****     Inspired/influenced by Mutable Instruments (pichenettes) Switch classes
  13:../../libdaisy/src/hid/switch.h ****     @author Stephen Hensley
  14:../../libdaisy/src/hid/switch.h ****     @date December 2019
  15:../../libdaisy/src/hid/switch.h ****     @ingroup controls
  16:../../libdaisy/src/hid/switch.h **** */
  17:../../libdaisy/src/hid/switch.h **** class Switch
  18:../../libdaisy/src/hid/switch.h **** {
  19:../../libdaisy/src/hid/switch.h ****   public:
  20:../../libdaisy/src/hid/switch.h ****     /** Specifies the expected behavior of the switch */
  21:../../libdaisy/src/hid/switch.h ****     enum Type
  22:../../libdaisy/src/hid/switch.h ****     {
  23:../../libdaisy/src/hid/switch.h ****         TYPE_TOGGLE,    /**< & */
  24:../../libdaisy/src/hid/switch.h ****         TYPE_MOMENTARY, /**< & */
  25:../../libdaisy/src/hid/switch.h ****     };
  26:../../libdaisy/src/hid/switch.h ****     /** Specifies whether the pressed is HIGH or LOW. */
  27:../../libdaisy/src/hid/switch.h ****     enum Polarity
  28:../../libdaisy/src/hid/switch.h ****     {
  29:../../libdaisy/src/hid/switch.h ****         POLARITY_NORMAL,   /**< & */
  30:../../libdaisy/src/hid/switch.h ****         POLARITY_INVERTED, /**< & */
  31:../../libdaisy/src/hid/switch.h ****     };
  32:../../libdaisy/src/hid/switch.h **** 
  33:../../libdaisy/src/hid/switch.h ****     /** Specifies whether to use built-in Pull Up/Down resistors to hold button at a given state wh
  34:../../libdaisy/src/hid/switch.h ****     enum Pull
  35:../../libdaisy/src/hid/switch.h ****     {
  36:../../libdaisy/src/hid/switch.h ****         PULL_UP,   /**< & */
  37:../../libdaisy/src/hid/switch.h ****         PULL_DOWN, /**< & */
  38:../../libdaisy/src/hid/switch.h ****         PULL_NONE, /**< & */
  39:../../libdaisy/src/hid/switch.h ****     };
  40:../../libdaisy/src/hid/switch.h **** 
  41:../../libdaisy/src/hid/switch.h ****     Switch() {}
  42:../../libdaisy/src/hid/switch.h ****     ~Switch() {}
 119              		.loc 7 42 5 is_stmt 1 view .LVU22
 120              		.loc 7 42 5 is_stmt 0 view .LVU23
 121              	.LBE506:
 122              	.LBB507:
 123              	.LBI507:
 124              		.loc 7 42 5 is_stmt 1 view .LVU24
 125              		.loc 7 42 5 is_stmt 0 view .LVU25
 126              	.LBE507:
 127              	.LBB508:
 128              	.LBI508:
 129              		.loc 7 42 5 is_stmt 1 view .LVU26
 130              		.loc 7 42 5 is_stmt 0 view .LVU27
 131              	.LBE508:
 132              	.LBB509:
 133              	.LBI509:
 134              		.loc 7 42 5 is_stmt 1 view .LVU28
 135              		.loc 7 42 5 is_stmt 0 view .LVU29
 136              	.LBE509:
 137              	.LBB510:
 138              	.LBI510:
 139              		.loc 2 23 5 is_stmt 1 view .LVU30
 140              		.loc 2 23 5 is_stmt 0 view .LVU31
 141              	.LBE510:
 142              	.LBB511:
ARM GAS  C:\Users\ashgr\AppData\Local\Temp\ccMnbzlT.s 			page 8


 143              	.LBI511:
 144              		.loc 2 23 5 is_stmt 1 view .LVU32
 145              		.loc 2 23 5 is_stmt 0 view .LVU33
 146              	.LBE511:
 147              	.LBB512:
 148              	.LBI512:
 149              		.loc 2 23 5 is_stmt 1 view .LVU34
 150              		.loc 2 23 5 is_stmt 0 view .LVU35
 151              	.LBE512:
 152              	.LBB513:
 153              	.LBI513:
 154              		.loc 2 23 5 is_stmt 1 view .LVU36
 155              		.loc 2 23 5 is_stmt 0 view .LVU37
 156              	.LBE513:
 157              	.LBB514:
 158              	.LBI514:
 159              		.loc 2 23 5 is_stmt 1 view .LVU38
 160              		.loc 2 23 5 is_stmt 0 view .LVU39
 161              	.LBE514:
 162              	.LBB515:
 163              	.LBI515:
 164              		.loc 2 23 5 is_stmt 1 view .LVU40
 165              		.loc 2 23 5 is_stmt 0 view .LVU41
 166              	.LBE515:
 167              	.LBB516:
 168              	.LBI516:
 169              		.loc 2 23 5 is_stmt 1 view .LVU42
 170              		.loc 2 23 5 is_stmt 0 view .LVU43
 171              	.LBE516:
 172              	.LBB517:
 173              	.LBI517:
 174              		.loc 2 23 5 is_stmt 1 view .LVU44
 175              		.loc 2 23 5 is_stmt 0 view .LVU45
 176              	.LBE517:
 177              	.LBB518:
 178              	.LBI518:
 179              		.loc 2 23 5 is_stmt 1 view .LVU46
 180              		.loc 2 23 5 is_stmt 0 view .LVU47
 181              	.LBE518:
 182              	.LBB519:
 183              	.LBI519:
 184              		.loc 2 23 5 is_stmt 1 view .LVU48
 185              		.loc 2 23 5 is_stmt 0 view .LVU49
 186              	.LBE519:
 187              	.LBB520:
 188              	.LBI520:
 189              		.loc 2 23 5 is_stmt 1 view .LVU50
 190              		.loc 2 23 5 is_stmt 0 view .LVU51
 191              	.LBE520:
 192              	.LBB521:
 193              	.LBI521:
 194              		.loc 2 23 5 is_stmt 1 view .LVU52
 195              		.loc 2 23 5 is_stmt 0 view .LVU53
 196              	.LBE521:
 197              	.LBB522:
 198              	.LBI522:
 199              		.file 8 "../../libdaisy/src/daisy_seed.h"
ARM GAS  C:\Users\ashgr\AppData\Local\Temp\ccMnbzlT.s 			page 9


   1:../../libdaisy/src/daisy_seed.h **** #pragma once
   2:../../libdaisy/src/daisy_seed.h **** #ifndef DSY_SEED_H
   3:../../libdaisy/src/daisy_seed.h **** #define DSY_SEED_H
   4:../../libdaisy/src/daisy_seed.h **** 
   5:../../libdaisy/src/daisy_seed.h **** #include "daisy.h"
   6:../../libdaisy/src/daisy_seed.h **** 
   7:../../libdaisy/src/daisy_seed.h **** //Uncomment this out if you're still using the rev2 hardware
   8:../../libdaisy/src/daisy_seed.h **** //#define SEED_REV2
   9:../../libdaisy/src/daisy_seed.h **** 
  10:../../libdaisy/src/daisy_seed.h **** namespace daisy
  11:../../libdaisy/src/daisy_seed.h **** {
  12:../../libdaisy/src/daisy_seed.h **** /**
  13:../../libdaisy/src/daisy_seed.h ****    @brief This is the higher-level interface for the Daisy board. \n 
  14:../../libdaisy/src/daisy_seed.h ****     All basic peripheral configuration/initialization is setup here. \n
  15:../../libdaisy/src/daisy_seed.h **** 
  16:../../libdaisy/src/daisy_seed.h ****    @ingroup boards
  17:../../libdaisy/src/daisy_seed.h **** */
  18:../../libdaisy/src/daisy_seed.h **** class DaisySeed
  19:../../libdaisy/src/daisy_seed.h **** {
  20:../../libdaisy/src/daisy_seed.h ****   public:
  21:../../libdaisy/src/daisy_seed.h ****     DaisySeed() {}
  22:../../libdaisy/src/daisy_seed.h ****     ~DaisySeed() {}
 200              		.loc 8 22 5 is_stmt 1 view .LVU54
 201              	.LBB523:
 202              	.LBI523:
 203              		.file 9 "../../libdaisy/src/sys/system.h"
   1:../../libdaisy/src/sys/system.h **** #ifndef DSY_SYSTEM_H
   2:../../libdaisy/src/sys/system.h **** #define DSY_SYSTEM_H
   3:../../libdaisy/src/sys/system.h **** 
   4:../../libdaisy/src/sys/system.h **** #ifndef UNIT_TEST // for unit tests, a dummy implementation is provided below
   5:../../libdaisy/src/sys/system.h **** 
   6:../../libdaisy/src/sys/system.h **** #include <cstdint>
   7:../../libdaisy/src/sys/system.h **** #include "per/tim.h"
   8:../../libdaisy/src/sys/system.h **** 
   9:../../libdaisy/src/sys/system.h **** namespace daisy
  10:../../libdaisy/src/sys/system.h **** {
  11:../../libdaisy/src/sys/system.h **** /** A handle for interacting with the Core System. 
  12:../../libdaisy/src/sys/system.h ****  ** This includes the Clock tree, MPU, global DMA initialization,
  13:../../libdaisy/src/sys/system.h ****  ** cache handling, and any other necessary global initiailzation
  14:../../libdaisy/src/sys/system.h ****  **
  15:../../libdaisy/src/sys/system.h ****  ** @author shensley
  16:../../libdaisy/src/sys/system.h ****  ** @addtogroup system
  17:../../libdaisy/src/sys/system.h ****  */
  18:../../libdaisy/src/sys/system.h **** class System
  19:../../libdaisy/src/sys/system.h **** {
  20:../../libdaisy/src/sys/system.h ****   public:
  21:../../libdaisy/src/sys/system.h ****     /** Contains settings for initializing the System */
  22:../../libdaisy/src/sys/system.h ****     struct Config
  23:../../libdaisy/src/sys/system.h ****     {
  24:../../libdaisy/src/sys/system.h ****         /** Specifies the system clock frequency that feeds APB/AHB clocks, etc. */
  25:../../libdaisy/src/sys/system.h ****         enum class SysClkFreq
  26:../../libdaisy/src/sys/system.h ****         {
  27:../../libdaisy/src/sys/system.h ****             FREQ_400MHZ,
  28:../../libdaisy/src/sys/system.h ****             FREQ_480MHZ,
  29:../../libdaisy/src/sys/system.h ****         };
  30:../../libdaisy/src/sys/system.h **** 
  31:../../libdaisy/src/sys/system.h ****         /** Method to call on the struct to set to defaults
ARM GAS  C:\Users\ashgr\AppData\Local\Temp\ccMnbzlT.s 			page 10


  32:../../libdaisy/src/sys/system.h ****          ** CPU Freq set to 400MHz
  33:../../libdaisy/src/sys/system.h ****          ** Cache Enabled 
  34:../../libdaisy/src/sys/system.h ****          ** */
  35:../../libdaisy/src/sys/system.h ****         void Defaults()
  36:../../libdaisy/src/sys/system.h ****         {
  37:../../libdaisy/src/sys/system.h ****             cpu_freq    = SysClkFreq::FREQ_400MHZ;
  38:../../libdaisy/src/sys/system.h ****             use_dcache  = true;
  39:../../libdaisy/src/sys/system.h ****             use_icache  = true;
  40:../../libdaisy/src/sys/system.h ****             skip_clocks = false;
  41:../../libdaisy/src/sys/system.h ****         }
  42:../../libdaisy/src/sys/system.h **** 
  43:../../libdaisy/src/sys/system.h ****         /** Method to call on the struct to set to boost mode:
  44:../../libdaisy/src/sys/system.h ****          ** CPU Freq set to 480MHz
  45:../../libdaisy/src/sys/system.h ****          ** Cache Enabled 
  46:../../libdaisy/src/sys/system.h ****          ** */
  47:../../libdaisy/src/sys/system.h ****         void Boost()
  48:../../libdaisy/src/sys/system.h ****         {
  49:../../libdaisy/src/sys/system.h ****             cpu_freq    = SysClkFreq::FREQ_480MHZ;
  50:../../libdaisy/src/sys/system.h ****             use_dcache  = true;
  51:../../libdaisy/src/sys/system.h ****             use_icache  = true;
  52:../../libdaisy/src/sys/system.h ****             skip_clocks = false;
  53:../../libdaisy/src/sys/system.h ****         }
  54:../../libdaisy/src/sys/system.h **** 
  55:../../libdaisy/src/sys/system.h ****         SysClkFreq cpu_freq;
  56:../../libdaisy/src/sys/system.h ****         bool       use_dcache;
  57:../../libdaisy/src/sys/system.h ****         bool       use_icache;
  58:../../libdaisy/src/sys/system.h ****         bool       skip_clocks;
  59:../../libdaisy/src/sys/system.h ****     };
  60:../../libdaisy/src/sys/system.h **** 
  61:../../libdaisy/src/sys/system.h ****     /** Describes the different regions of memory available to the Daisy
  62:../../libdaisy/src/sys/system.h ****      * 
  63:../../libdaisy/src/sys/system.h ****      */
  64:../../libdaisy/src/sys/system.h ****     enum MemoryRegion
  65:../../libdaisy/src/sys/system.h ****     {
  66:../../libdaisy/src/sys/system.h ****         INTERNAL_FLASH = 0,
  67:../../libdaisy/src/sys/system.h ****         ITCMRAM,
  68:../../libdaisy/src/sys/system.h ****         DTCMRAM,
  69:../../libdaisy/src/sys/system.h ****         SRAM_D1,
  70:../../libdaisy/src/sys/system.h ****         SRAM_D2,
  71:../../libdaisy/src/sys/system.h ****         SRAM_D3,
  72:../../libdaisy/src/sys/system.h ****         SDRAM,
  73:../../libdaisy/src/sys/system.h ****         QSPI,
  74:../../libdaisy/src/sys/system.h ****         INVALID_ADDRESS,
  75:../../libdaisy/src/sys/system.h ****     };
  76:../../libdaisy/src/sys/system.h **** 
  77:../../libdaisy/src/sys/system.h ****     System() {}
  78:../../libdaisy/src/sys/system.h ****     ~System() {}
 204              		.loc 9 78 5 view .LVU55
 205              		.loc 9 78 5 is_stmt 0 view .LVU56
 206              	.LBE523:
 207              	.LBB524:
 208              	.LBI524:
 209              		.file 10 "../../libdaisy/src/hid/usb.h"
   1:../../libdaisy/src/hid/usb.h **** #pragma once
   2:../../libdaisy/src/hid/usb.h **** #ifndef DSY_HID_USB_H
   3:../../libdaisy/src/hid/usb.h **** #define DSY_HID_USB_H
   4:../../libdaisy/src/hid/usb.h **** #include <stdint.h>
ARM GAS  C:\Users\ashgr\AppData\Local\Temp\ccMnbzlT.s 			page 11


   5:../../libdaisy/src/hid/usb.h **** #include <stdlib.h>
   6:../../libdaisy/src/hid/usb.h **** 
   7:../../libdaisy/src/hid/usb.h **** namespace daisy
   8:../../libdaisy/src/hid/usb.h **** /** @addtogroup externals
   9:../../libdaisy/src/hid/usb.h ****     @{
  10:../../libdaisy/src/hid/usb.h **** */
  11:../../libdaisy/src/hid/usb.h **** 
  12:../../libdaisy/src/hid/usb.h **** {
  13:../../libdaisy/src/hid/usb.h **** /** 
  14:../../libdaisy/src/hid/usb.h ****     @brief Interface for initializing and using the USB Peripherals on the daisy
  15:../../libdaisy/src/hid/usb.h ****     @author Stephen Hensley
  16:../../libdaisy/src/hid/usb.h ****     @date December 2019
  17:../../libdaisy/src/hid/usb.h **** */
  18:../../libdaisy/src/hid/usb.h **** class UsbHandle
  19:../../libdaisy/src/hid/usb.h **** {
  20:../../libdaisy/src/hid/usb.h ****   public:
  21:../../libdaisy/src/hid/usb.h ****     /** Return values for USBHandle Functions */
  22:../../libdaisy/src/hid/usb.h ****     enum class Result
  23:../../libdaisy/src/hid/usb.h ****     {
  24:../../libdaisy/src/hid/usb.h ****         OK,
  25:../../libdaisy/src/hid/usb.h ****         ERR,
  26:../../libdaisy/src/hid/usb.h ****     };
  27:../../libdaisy/src/hid/usb.h **** 
  28:../../libdaisy/src/hid/usb.h ****     /** Specified which of the two USB Peripherals to initialize. */
  29:../../libdaisy/src/hid/usb.h ****     enum UsbPeriph
  30:../../libdaisy/src/hid/usb.h ****     {
  31:../../libdaisy/src/hid/usb.h ****         FS_INTERNAL, /**< Internal pin */
  32:../../libdaisy/src/hid/usb.h ****         FS_EXTERNAL, /**< FS External D+ pin is Pin 38 (GPIO32). FS External D- pin is Pin 37 (GPIO
  33:../../libdaisy/src/hid/usb.h ****         FS_BOTH,     /**< Both */
  34:../../libdaisy/src/hid/usb.h ****     };
  35:../../libdaisy/src/hid/usb.h **** 
  36:../../libdaisy/src/hid/usb.h **** 
  37:../../libdaisy/src/hid/usb.h ****     /** Function called upon reception of a buffer */
  38:../../libdaisy/src/hid/usb.h ****     typedef void (*ReceiveCallback)(uint8_t* buff, uint32_t* len);
  39:../../libdaisy/src/hid/usb.h **** 
  40:../../libdaisy/src/hid/usb.h ****     UsbHandle() {}
  41:../../libdaisy/src/hid/usb.h **** 
  42:../../libdaisy/src/hid/usb.h ****     ~UsbHandle() {}
 210              		.loc 10 42 5 is_stmt 1 view .LVU57
 211              		.loc 10 42 5 is_stmt 0 view .LVU58
 212              	.LBE524:
 213              	.LBB525:
 214              	.LBI525:
 215              		.file 11 "../../libdaisy/src/per/adc.h"
   1:../../libdaisy/src/per/adc.h **** #pragma once
   2:../../libdaisy/src/per/adc.h **** #ifndef DSY_ADC_H
   3:../../libdaisy/src/per/adc.h **** #define DSY_ADC_H /**< Macro */
   4:../../libdaisy/src/per/adc.h **** #include <stdint.h>
   5:../../libdaisy/src/per/adc.h **** #include <stdlib.h>
   6:../../libdaisy/src/per/adc.h **** #include "daisy_core.h"
   7:../../libdaisy/src/per/adc.h **** #include "per/gpio.h"
   8:../../libdaisy/src/per/adc.h **** 
   9:../../libdaisy/src/per/adc.h **** #define DSY_ADC_MAX_CHANNELS 16 /**< Maximum number of ADC channels */
  10:../../libdaisy/src/per/adc.h **** 
  11:../../libdaisy/src/per/adc.h **** namespace daisy
  12:../../libdaisy/src/per/adc.h **** {
  13:../../libdaisy/src/per/adc.h **** /** @addtogroup analog_digital_conversion
ARM GAS  C:\Users\ashgr\AppData\Local\Temp\ccMnbzlT.s 			page 12


  14:../../libdaisy/src/per/adc.h ****     @{
  15:../../libdaisy/src/per/adc.h **** */
  16:../../libdaisy/src/per/adc.h **** 
  17:../../libdaisy/src/per/adc.h **** /* While there may not be many configuration options here,
  18:../../libdaisy/src/per/adc.h **** using a struct like this allows us to add more configuration
  19:../../libdaisy/src/per/adc.h **** later without breaking existing functionality.
  20:../../libdaisy/src/per/adc.h **** */
  21:../../libdaisy/src/per/adc.h **** 
  22:../../libdaisy/src/per/adc.h **** /** Configuration Structure for a given channel */
  23:../../libdaisy/src/per/adc.h **** struct AdcChannelConfig
  24:../../libdaisy/src/per/adc.h **** {
  25:../../libdaisy/src/per/adc.h ****     /** Which pin to use for multiplexing */
  26:../../libdaisy/src/per/adc.h ****     enum MuxPin
  27:../../libdaisy/src/per/adc.h ****     {
  28:../../libdaisy/src/per/adc.h ****         MUX_SEL_0,    /**< & */
  29:../../libdaisy/src/per/adc.h ****         MUX_SEL_1,    /**< & */
  30:../../libdaisy/src/per/adc.h ****         MUX_SEL_2,    /**< & */
  31:../../libdaisy/src/per/adc.h ****         MUX_SEL_LAST, /**< & */
  32:../../libdaisy/src/per/adc.h ****     };
  33:../../libdaisy/src/per/adc.h **** 
  34:../../libdaisy/src/per/adc.h ****     /** Initializes a single ADC pin as an ADC. 
  35:../../libdaisy/src/per/adc.h ****     \param pin Pin to init.
  36:../../libdaisy/src/per/adc.h ****      */
  37:../../libdaisy/src/per/adc.h ****     void InitSingle(dsy_gpio_pin pin);
  38:../../libdaisy/src/per/adc.h **** 
  39:../../libdaisy/src/per/adc.h ****     /** 
  40:../../libdaisy/src/per/adc.h ****     Initializes a single ADC pin as a Multiplexed ADC.
  41:../../libdaisy/src/per/adc.h ****     Requires a CD405X Multiplexer connected to the pin.
  42:../../libdaisy/src/per/adc.h ****     You only need to supply the mux pins that are required,
  43:../../libdaisy/src/per/adc.h ****     e.g. a 4052 mux would only require mux_0 and mux_1.
  44:../../libdaisy/src/per/adc.h ****     Internal Callbacks handle the pin addressing.
  45:../../libdaisy/src/per/adc.h ****     \param mux_channels must be 1-8
  46:../../libdaisy/src/per/adc.h ****     \param mux_0 First mux pin
  47:../../libdaisy/src/per/adc.h ****     \param mux_1 Second mux pin
  48:../../libdaisy/src/per/adc.h ****     \param mux_2 Third mux pin
  49:../../libdaisy/src/per/adc.h ****     \param adc_pin &
  50:../../libdaisy/src/per/adc.h ****     */
  51:../../libdaisy/src/per/adc.h ****     void InitMux(dsy_gpio_pin adc_pin,
  52:../../libdaisy/src/per/adc.h ****                  size_t       mux_channels,
  53:../../libdaisy/src/per/adc.h ****                  dsy_gpio_pin mux_0,
  54:../../libdaisy/src/per/adc.h ****                  dsy_gpio_pin mux_1 = {DSY_GPIOX, 0},
  55:../../libdaisy/src/per/adc.h ****                  dsy_gpio_pin mux_2 = {DSY_GPIOX, 0});
  56:../../libdaisy/src/per/adc.h **** 
  57:../../libdaisy/src/per/adc.h ****     dsy_gpio pin_;                   /**< & */
  58:../../libdaisy/src/per/adc.h ****     dsy_gpio mux_pin_[MUX_SEL_LAST]; /**< & */
  59:../../libdaisy/src/per/adc.h ****     uint8_t  mux_channels_;          /**< & */
  60:../../libdaisy/src/per/adc.h **** };
  61:../../libdaisy/src/per/adc.h **** 
  62:../../libdaisy/src/per/adc.h **** /**
  63:../../libdaisy/src/per/adc.h ****    Handler for analog to digital conversion
  64:../../libdaisy/src/per/adc.h **** */
  65:../../libdaisy/src/per/adc.h **** class AdcHandle
  66:../../libdaisy/src/per/adc.h **** {
  67:../../libdaisy/src/per/adc.h ****   public:
  68:../../libdaisy/src/per/adc.h ****     /** Supported oversampling amounts */
  69:../../libdaisy/src/per/adc.h ****     enum OverSampling
  70:../../libdaisy/src/per/adc.h ****     {
ARM GAS  C:\Users\ashgr\AppData\Local\Temp\ccMnbzlT.s 			page 13


  71:../../libdaisy/src/per/adc.h ****         OVS_NONE, /**< & */
  72:../../libdaisy/src/per/adc.h ****         OVS_4,    /**< & */
  73:../../libdaisy/src/per/adc.h ****         OVS_8,    /**< & */
  74:../../libdaisy/src/per/adc.h ****         OVS_16,   /**< & */
  75:../../libdaisy/src/per/adc.h ****         OVS_32,   /**< & */
  76:../../libdaisy/src/per/adc.h ****         OVS_64,   /**< & */
  77:../../libdaisy/src/per/adc.h ****         OVS_128,  /**< & */
  78:../../libdaisy/src/per/adc.h ****         OVS_256,  /**< & */
  79:../../libdaisy/src/per/adc.h ****         OVS_512,  /**< & */
  80:../../libdaisy/src/per/adc.h ****         OVS_1024, /**< & */
  81:../../libdaisy/src/per/adc.h ****         OVS_LAST, /**< & */
  82:../../libdaisy/src/per/adc.h ****     };
  83:../../libdaisy/src/per/adc.h **** 
  84:../../libdaisy/src/per/adc.h ****     AdcHandle() {}
  85:../../libdaisy/src/per/adc.h ****     ~AdcHandle() {}
 216              		.loc 11 85 5 is_stmt 1 view .LVU59
 217              		.loc 11 85 5 is_stmt 0 view .LVU60
 218              	.LBE525:
 219              	.LBB526:
 220              	.LBI526:
 221              		.file 12 "../../libdaisy/src/hid/audio.h"
   1:../../libdaisy/src/hid/audio.h **** #ifndef DSY_AUDIO_H
   2:../../libdaisy/src/hid/audio.h **** #define DSY_AUDIO_H /**< & */
   3:../../libdaisy/src/hid/audio.h **** 
   4:../../libdaisy/src/hid/audio.h **** #include "per/sai.h"
   5:../../libdaisy/src/hid/audio.h **** 
   6:../../libdaisy/src/hid/audio.h **** namespace daisy
   7:../../libdaisy/src/hid/audio.h **** {
   8:../../libdaisy/src/hid/audio.h **** class AudioHandle
   9:../../libdaisy/src/hid/audio.h **** {
  10:../../libdaisy/src/hid/audio.h ****   public:
  11:../../libdaisy/src/hid/audio.h ****     /** Manually configurable details about the Audio Engine */
  12:../../libdaisy/src/hid/audio.h ****     /** TODO: Figure out how to get samplerate in here. */
  13:../../libdaisy/src/hid/audio.h ****     struct Config
  14:../../libdaisy/src/hid/audio.h ****     {
  15:../../libdaisy/src/hid/audio.h ****         size_t                        blocksize;
  16:../../libdaisy/src/hid/audio.h ****         SaiHandle::Config::SampleRate samplerate;
  17:../../libdaisy/src/hid/audio.h ****         float                         postgain;
  18:../../libdaisy/src/hid/audio.h ****     };
  19:../../libdaisy/src/hid/audio.h **** 
  20:../../libdaisy/src/hid/audio.h ****     enum class Result
  21:../../libdaisy/src/hid/audio.h ****     {
  22:../../libdaisy/src/hid/audio.h ****         OK,
  23:../../libdaisy/src/hid/audio.h ****         ERR,
  24:../../libdaisy/src/hid/audio.h ****     };
  25:../../libdaisy/src/hid/audio.h **** 
  26:../../libdaisy/src/hid/audio.h ****     /** Non-Interleaving input buffer
  27:../../libdaisy/src/hid/audio.h ****      * Buffer arranged by float[chn][sample] 
  28:../../libdaisy/src/hid/audio.h ****      * const so that the user can't modify the input
  29:../../libdaisy/src/hid/audio.h ****     */
  30:../../libdaisy/src/hid/audio.h ****     typedef const float* const* InputBuffer;
  31:../../libdaisy/src/hid/audio.h **** 
  32:../../libdaisy/src/hid/audio.h ****     /** Non-Interleaving output buffer
  33:../../libdaisy/src/hid/audio.h ****      * Arranged by float[chn][sample] 
  34:../../libdaisy/src/hid/audio.h ****     */
  35:../../libdaisy/src/hid/audio.h ****     typedef float** OutputBuffer;
  36:../../libdaisy/src/hid/audio.h **** 
ARM GAS  C:\Users\ashgr\AppData\Local\Temp\ccMnbzlT.s 			page 14


  37:../../libdaisy/src/hid/audio.h ****     /** Type for a Non-Interleaving audio callback 
  38:../../libdaisy/src/hid/audio.h ****    * Non-Interleaving audio callbacks in daisy will be of this type
  39:../../libdaisy/src/hid/audio.h ****   */
  40:../../libdaisy/src/hid/audio.h ****     typedef void (*AudioCallback)(InputBuffer  in,
  41:../../libdaisy/src/hid/audio.h ****                                   OutputBuffer out,
  42:../../libdaisy/src/hid/audio.h ****                                   size_t       size);
  43:../../libdaisy/src/hid/audio.h **** 
  44:../../libdaisy/src/hid/audio.h ****     /** Interleaving Input buffer
  45:../../libdaisy/src/hid/audio.h ****      ** audio is prepared as { L0, R0, L1, R1, . . . LN, RN }]
  46:../../libdaisy/src/hid/audio.h ****      ** this is const, as the user shouldn't modify it
  47:../../libdaisy/src/hid/audio.h ****     */
  48:../../libdaisy/src/hid/audio.h ****     typedef const float* InterleavingInputBuffer;
  49:../../libdaisy/src/hid/audio.h **** 
  50:../../libdaisy/src/hid/audio.h ****     /** Interleaving Output buffer 
  51:../../libdaisy/src/hid/audio.h ****      ** audio is prepared as { L0, R0, L1, R1, . . . LN, RN }
  52:../../libdaisy/src/hid/audio.h ****     */
  53:../../libdaisy/src/hid/audio.h ****     typedef float* InterleavingOutputBuffer;
  54:../../libdaisy/src/hid/audio.h **** 
  55:../../libdaisy/src/hid/audio.h ****     /** Interleaving Audio Callback 
  56:../../libdaisy/src/hid/audio.h ****    * Interleaving audio callbacks in daisy must be of this type
  57:../../libdaisy/src/hid/audio.h ****   */
  58:../../libdaisy/src/hid/audio.h ****     typedef void (*InterleavingAudioCallback)(InterleavingInputBuffer  in,
  59:../../libdaisy/src/hid/audio.h ****                                               InterleavingOutputBuffer out,
  60:../../libdaisy/src/hid/audio.h ****                                               size_t                   size);
  61:../../libdaisy/src/hid/audio.h **** 
  62:../../libdaisy/src/hid/audio.h ****     AudioHandle() : pimpl_(nullptr) {}
  63:../../libdaisy/src/hid/audio.h ****     ~AudioHandle() {}
 222              		.loc 12 63 5 is_stmt 1 view .LVU61
 223              		.loc 12 63 5 is_stmt 0 view .LVU62
 224              	.LBE526:
 225              	.LBE522:
 226              		.loc 3 40 21 view .LVU63
 227 0000 7047     		bx	lr
 228              		.cfi_endproc
 229              	.LFE2048:
 231              		.weak	_ZN5daisy11CsoHardwareD1Ev
 232              		.thumb_set _ZN5daisy11CsoHardwareD1Ev,_ZN5daisy11CsoHardwareD2Ev
 233 0002 00BF     		.section	.text._ZN7daisysp3CsoD2Ev,"axG",%progbits,_ZN7daisysp3CsoD5Ev,comdat
 234              		.align	1
 235              		.p2align 2,,3
 236              		.weak	_ZN7daisysp3CsoD2Ev
 237              		.syntax unified
 238              		.thumb
 239              		.thumb_func
 240              		.fpu fpv5-d16
 242              	_ZN7daisysp3CsoD2Ev:
 243              	.LVL2:
 244              	.LFB4180:
 245              		.file 13 "../../DaisySP/Source/Synthesis/cso.h"
   1:../../DaisySP/Source/Synthesis/cso.h **** #pragma once
   2:../../DaisySP/Source/Synthesis/cso.h **** #ifndef DSY_CSO_H
   3:../../DaisySP/Source/Synthesis/cso.h **** #define DSY_CSO_H
   4:../../DaisySP/Source/Synthesis/cso.h **** #include <stdint.h>
   5:../../DaisySP/Source/Synthesis/cso.h **** #include "Utility/dsp.h"
   6:../../DaisySP/Source/Synthesis/cso.h **** #ifdef __cplusplus
   7:../../DaisySP/Source/Synthesis/cso.h **** 
   8:../../DaisySP/Source/Synthesis/cso.h **** /*
ARM GAS  C:\Users\ashgr\AppData\Local\Temp\ccMnbzlT.s 			page 15


   9:../../DaisySP/Source/Synthesis/cso.h **** CSO (Cosine Switching Oscillator): Oscillator whose output switches between two phase-locked cosine
  10:../../DaisySP/Source/Synthesis/cso.h **** Each cycle begins with the CARRIER wave, switches to the RESONATOR wave (at some point between pi a
  11:../../DaisySP/Source/Synthesis/cso.h **** to the carrier wave at the end of the cycle. Modulation of the point at which this switch occurs (c
  12:../../DaisySP/Source/Synthesis/cso.h **** produces a waveform functionally identical to the SAW waveform on the CASIO CZ-101. Modulation of t
  13:../../DaisySP/Source/Synthesis/cso.h **** (controlled by the RATIO parameter) can be used in conjuction with WIDTH parameter to recreate the 
  14:../../DaisySP/Source/Synthesis/cso.h **** upper harmonics to both the SAW and SQUARE waveforms similar to the CZ-101's various RES waveforms.
  15:../../DaisySP/Source/Synthesis/cso.h **** 
  16:../../DaisySP/Source/Synthesis/cso.h **** Note that this program does not use the CZ-101's "Phase Distortion" method of synthesis to create t
  17:../../DaisySP/Source/Synthesis/cso.h **** of synthesis instead allows us to generate these waveforms in a "mode-less" manner, allowing the us
  18:../../DaisySP/Source/Synthesis/cso.h **** waveforms as well as add the RES-style harmonics directly to to the SAW/SQUARE waveforms for a rich
  19:../../DaisySP/Source/Synthesis/cso.h **** 
  20:../../DaisySP/Source/Synthesis/cso.h **** The CSO also includes a FEEDBACK parameter, which allows us to add phase modulation feedback (a la 
  21:../../DaisySP/Source/Synthesis/cso.h **** for additional waveshaping. The feedback's phase is inverted (relative to the DX7's implementation)
  22:../../DaisySP/Source/Synthesis/cso.h **** waveshaping occurs in opposition to the sine --> saw waveshaping of the WIDTH parameter. The combin
  23:../../DaisySP/Source/Synthesis/cso.h **** resembles a square wave with clipping/saturation.
  24:../../DaisySP/Source/Synthesis/cso.h **** 
  25:../../DaisySP/Source/Synthesis/cso.h **** The SPREAD parameter adds detune to a set of slave oscillators, similar to the SUPER SAW oscillator
  26:../../DaisySP/Source/Synthesis/cso.h **** */
  27:../../DaisySP/Source/Synthesis/cso.h **** 
  28:../../DaisySP/Source/Synthesis/cso.h **** namespace daisysp
  29:../../DaisySP/Source/Synthesis/cso.h **** {
  30:../../DaisySP/Source/Synthesis/cso.h **** class Cso
  31:../../DaisySP/Source/Synthesis/cso.h **** {
  32:../../DaisySP/Source/Synthesis/cso.h ****   public:
  33:../../DaisySP/Source/Synthesis/cso.h ****     Cso() {}
  34:../../DaisySP/Source/Synthesis/cso.h ****     ~Cso() {}
 246              		.loc 13 34 5 is_stmt 1 view -0
 247              		.cfi_startproc
 248              		@ args = 0, pretend = 0, frame = 0
 249              		@ frame_needed = 0, uses_anonymous_args = 0
 250              		@ link register save eliminated.
 251              		.loc 13 34 13 is_stmt 0 view .LVU65
 252 0000 7047     		bx	lr
 253              		.cfi_endproc
 254              	.LFE4180:
 256              		.weak	_ZN7daisysp3CsoD1Ev
 257              		.thumb_set _ZN7daisysp3CsoD1Ev,_ZN7daisysp3CsoD2Ev
 258              		.section	.text._Z9InitSynthf,"ax",%progbits
 259              		.align	1
 260              		.p2align 2,,3
 261              		.global	_Z9InitSynthf
 262              		.syntax unified
 263              		.thumb
 264              		.thumb_func
 265              		.fpu fpv5-d16
 267              	_Z9InitSynthf:
 268              	.LVL3:
 269              	.LFB4323:
 270              		.file 14 "sego.cpp"
   1:sego.cpp      **** #include "cso_hardware.h"
   2:sego.cpp      **** #include "daisysp.h"
   3:sego.cpp      **** 
   4:sego.cpp      **** using namespace daisy;
   5:sego.cpp      **** using namespace daisysp;
   6:sego.cpp      **** 
   7:sego.cpp      **** CsoHardware hw;
   8:sego.cpp      **** Cso         osc1, osc2;
ARM GAS  C:\Users\ashgr\AppData\Local\Temp\ccMnbzlT.s 			page 16


   9:sego.cpp      **** Parameter   p_freq1, p_freq1_ratio, p_width, p_ratio, p_feedback, p_freq2, p_offset, p_cv1;
  10:sego.cpp      **** 
  11:sego.cpp      **** 
  12:sego.cpp      **** static float freq1, freq1_ratio, width, ratio, feedback, freq2, offset, cv1;
  13:sego.cpp      **** float        sig1, sig2;
  14:sego.cpp      **** static int   range, mode, scale, shift;
  15:sego.cpp      **** 
  16:sego.cpp      **** void Controls();
  17:sego.cpp      **** 
  18:sego.cpp      **** static void AudioCallback(AudioHandle::InterleavingInputBuffer  in,
  19:sego.cpp      ****                           AudioHandle::InterleavingOutputBuffer out,
  20:sego.cpp      ****                           size_t                                size)
  21:sego.cpp      **** {
  22:sego.cpp      ****     Controls();
  23:sego.cpp      **** 
  24:sego.cpp      ****     for(size_t i = 0; i < size; i += 2)
  25:sego.cpp      ****     {
  26:sego.cpp      ****         sig1      = osc1.Process();
  27:sego.cpp      ****         sig2      = osc2.Process();
  28:sego.cpp      **** 
  29:sego.cpp      ****         out[i]     = sig1;
  30:sego.cpp      ****         out[i + 1] = sig2;
  31:sego.cpp      ****     }
  32:sego.cpp      **** }
  33:sego.cpp      **** 
  34:sego.cpp      **** void InitSynth(float samplerate)
  35:sego.cpp      **** {
 271              		.loc 14 35 1 is_stmt 1 view -0
 272              		.cfi_startproc
 273              		@ args = 0, pretend = 0, frame = 32
 274              		@ frame_needed = 0, uses_anonymous_args = 0
  36:sego.cpp      ****     p_freq1.Init(hw.knob1, 24.0f, 84.0f, p_freq1.LINEAR);
 275              		.loc 14 36 5 view .LVU67
  35:sego.cpp      ****     p_freq1.Init(hw.knob1, 24.0f, 84.0f, p_freq1.LINEAR);
 276              		.loc 14 35 1 is_stmt 0 view .LVU68
 277 0000 2DE9F041 		push	{r4, r5, r6, r7, r8, lr}
 278              		.cfi_def_cfa_offset 24
 279              		.cfi_offset 4, -24
 280              		.cfi_offset 5, -20
 281              		.cfi_offset 6, -16
 282              		.cfi_offset 7, -12
 283              		.cfi_offset 8, -8
 284              		.cfi_offset 14, -4
 285              		.loc 14 36 21 view .LVU69
 286 0004 7D4C     		ldr	r4, .L7
 287              	.LBB547:
 288              	.LBB548:
  35:../../DaisySP/Source/Synthesis/cso.h **** 
  36:../../DaisySP/Source/Synthesis/cso.h ****     void Init(float sample_rate)
  37:../../DaisySP/Source/Synthesis/cso.h ****     {
  38:../../DaisySP/Source/Synthesis/cso.h ****         sr_        = sample_rate;
  39:../../DaisySP/Source/Synthesis/cso.h ****         sr_recip_  = 1.0f / sample_rate;
  40:../../DaisySP/Source/Synthesis/cso.h ****         freq_      = 440.0f;
  41:../../DaisySP/Source/Synthesis/cso.h ****         ratio_     = 0.0f;
  42:../../DaisySP/Source/Synthesis/cso.h ****         width_     = 0.5f;
 289              		.loc 13 42 20 view .LVU70
 290 0006 4FF07C58 		mov	r8, #1056964608
ARM GAS  C:\Users\ashgr\AppData\Local\Temp\ccMnbzlT.s 			page 17


 291              	.LBE548:
 292              	.LBE547:
 293              		.loc 14 36 17 view .LVU71
 294 000a DFED7D0A 		vldr.32	s1, .L7+4
 295              	.LBB555:
 296              	.LBB549:
  43:../../DaisySP/Source/Synthesis/cso.h ****         feedback_  = 0.0f;
  44:../../DaisySP/Source/Synthesis/cso.h ****         offset_    = 0.0f;
  45:../../DaisySP/Source/Synthesis/cso.h ****         amp_       = 0.5f;
  46:../../DaisySP/Source/Synthesis/cso.h ****         phase_     = 0.0f;
  47:../../DaisySP/Source/Synthesis/cso.h ****         phase_inc_ = CalcPhaseInc(freq_);
  48:../../DaisySP/Source/Synthesis/cso.h ****         prev_out_  = 0.0f;
  49:../../DaisySP/Source/Synthesis/cso.h ****         eoc_       = true;
  50:../../DaisySP/Source/Synthesis/cso.h ****         eor_       = true;
 297              		.loc 13 50 20 view .LVU72
 298 000e 40F20117 		movw	r7, #257
 299              	.LBE549:
 300              	.LBE555:
 301              		.loc 14 36 21 view .LVU73
 302 0012 04F13C0E 		add	lr, r4, #60
 303              	.LBB556:
 304              	.LBB550:
  38:../../DaisySP/Source/Synthesis/cso.h ****         sr_recip_  = 1.0f / sample_rate;
 305              		.loc 13 38 20 view .LVU74
 306 0016 7B4E     		ldr	r6, .L7+8
 307              	.LBE550:
 308              	.LBE556:
 309              	.LBB557:
 310              	.LBB558:
 311 0018 7B4D     		ldr	r5, .L7+12
 312              	.LBE558:
 313              	.LBE557:
  35:sego.cpp      ****     p_freq1.Init(hw.knob1, 24.0f, 84.0f, p_freq1.LINEAR);
 314              		.loc 14 35 1 view .LVU75
 315 001a 2DED048B 		vpush.64	{d8, d9}
 316              		.cfi_def_cfa_offset 40
 317              		.cfi_offset 80, -40
 318              		.cfi_offset 81, -36
 319              		.cfi_offset 82, -32
 320              		.cfi_offset 83, -28
 321 001e 88B0     		sub	sp, sp, #32
 322              		.cfi_def_cfa_offset 72
  35:sego.cpp      ****     p_freq1.Init(hw.knob1, 24.0f, 84.0f, p_freq1.LINEAR);
 323              		.loc 14 35 1 view .LVU76
 324 0020 F0EE408A 		vmov.f32	s17, s0
 325              		.loc 14 36 17 view .LVU77
 326 0024 B3EE080A 		vmov.f32	s0, #2.4e+1
 327              	.LVL4:
  37:sego.cpp      ****     p_freq1_ratio.Init(hw.knob1, 1.0f, 8.0f, p_freq1_ratio.LINEAR);
  38:sego.cpp      ****     p_width.Init(hw.knob2, 0.5f, 1.0f, p_width.LINEAR);
  39:sego.cpp      ****     p_ratio.Init(hw.knob3, 0.0f, 7.0f, p_ratio.LINEAR);
 328              		.loc 14 39 17 view .LVU78
 329 0028 9FED788A 		vldr.32	s16, .L7+16
  36:sego.cpp      ****     p_freq1_ratio.Init(hw.knob1, 1.0f, 8.0f, p_freq1_ratio.LINEAR);
 330              		.loc 14 36 21 view .LVU79
 331 002c EC46     		mov	ip, sp
 332              	.LBB562:
ARM GAS  C:\Users\ashgr\AppData\Local\Temp\ccMnbzlT.s 			page 18


 333              	.LBB551:
  40:../../DaisySP/Source/Synthesis/cso.h ****         ratio_     = 0.0f;
 334              		.loc 13 40 20 view .LVU80
 335 002e 9FED789A 		vldr.32	s18, .L7+20
 336              	.LBE551:
 337              	.LBE562:
  36:sego.cpp      ****     p_freq1_ratio.Init(hw.knob1, 1.0f, 8.0f, p_freq1_ratio.LINEAR);
 338              		.loc 14 36 21 view .LVU81
 339 0032 BEE80F00 		ldmia	lr!, {r0, r1, r2, r3}
 340 0036 ACE80F00 		stmia	ip!, {r0, r1, r2, r3}
 341 003a 9EE80F00 		ldm	lr, {r0, r1, r2, r3}
 342 003e 8CE80F00 		stm	ip, {r0, r1, r2, r3}
  36:sego.cpp      ****     p_freq1_ratio.Init(hw.knob1, 1.0f, 8.0f, p_freq1_ratio.LINEAR);
 343              		.loc 14 36 17 view .LVU82
 344 0042 6946     		mov	r1, sp
 345 0044 0022     		movs	r2, #0
 346 0046 7348     		ldr	r0, .L7+24
 347 0048 FFF7FEFF 		bl	_ZN5daisy9Parameter4InitENS_13AnalogControlEffNS0_5CurveE
 348              	.LVL5:
 349              	.LBB563:
 350              	.LBI563:
 351              		.loc 2 23 5 is_stmt 1 view .LVU83
 352              		.loc 2 23 5 is_stmt 0 view .LVU84
 353              	.LBE563:
  37:sego.cpp      ****     p_freq1_ratio.Init(hw.knob1, 1.0f, 8.0f, p_freq1_ratio.LINEAR);
 354              		.loc 14 37 5 is_stmt 1 view .LVU85
  37:sego.cpp      ****     p_freq1_ratio.Init(hw.knob1, 1.0f, 8.0f, p_freq1_ratio.LINEAR);
 355              		.loc 14 37 27 is_stmt 0 view .LVU86
 356 004c 04F13C0E 		add	lr, r4, #60
 357 0050 EC46     		mov	ip, sp
  37:sego.cpp      ****     p_freq1_ratio.Init(hw.knob1, 1.0f, 8.0f, p_freq1_ratio.LINEAR);
 358              		.loc 14 37 23 view .LVU87
 359 0052 F2EE000A 		vmov.f32	s1, #8.0e+0
 360 0056 B7EE000A 		vmov.f32	s0, #1.0e+0
  37:sego.cpp      ****     p_freq1_ratio.Init(hw.knob1, 1.0f, 8.0f, p_freq1_ratio.LINEAR);
 361              		.loc 14 37 27 view .LVU88
 362 005a BEE80F00 		ldmia	lr!, {r0, r1, r2, r3}
 363 005e ACE80F00 		stmia	ip!, {r0, r1, r2, r3}
 364 0062 9EE80F00 		ldm	lr, {r0, r1, r2, r3}
 365 0066 8CE80F00 		stm	ip, {r0, r1, r2, r3}
  37:sego.cpp      ****     p_freq1_ratio.Init(hw.knob1, 1.0f, 8.0f, p_freq1_ratio.LINEAR);
 366              		.loc 14 37 23 view .LVU89
 367 006a 6946     		mov	r1, sp
 368 006c 0022     		movs	r2, #0
 369 006e 6A48     		ldr	r0, .L7+28
 370 0070 FFF7FEFF 		bl	_ZN5daisy9Parameter4InitENS_13AnalogControlEffNS0_5CurveE
 371              	.LVL6:
 372              	.LBB564:
 373              	.LBI564:
 374              		.loc 2 23 5 is_stmt 1 view .LVU90
 375              		.loc 2 23 5 is_stmt 0 view .LVU91
 376              	.LBE564:
  38:sego.cpp      ****     p_ratio.Init(hw.knob3, 0.0f, 7.0f, p_ratio.LINEAR);
 377              		.loc 14 38 5 is_stmt 1 view .LVU92
  38:sego.cpp      ****     p_ratio.Init(hw.knob3, 0.0f, 7.0f, p_ratio.LINEAR);
 378              		.loc 14 38 21 is_stmt 0 view .LVU93
 379 0074 04F15C0E 		add	lr, r4, #92
ARM GAS  C:\Users\ashgr\AppData\Local\Temp\ccMnbzlT.s 			page 19


 380 0078 EC46     		mov	ip, sp
  38:sego.cpp      ****     p_ratio.Init(hw.knob3, 0.0f, 7.0f, p_ratio.LINEAR);
 381              		.loc 14 38 17 view .LVU94
 382 007a 00EE108A 		vmov	s0, r8
 383 007e F7EE000A 		vmov.f32	s1, #1.0e+0
  38:sego.cpp      ****     p_ratio.Init(hw.knob3, 0.0f, 7.0f, p_ratio.LINEAR);
 384              		.loc 14 38 21 view .LVU95
 385 0082 BEE80F00 		ldmia	lr!, {r0, r1, r2, r3}
 386 0086 ACE80F00 		stmia	ip!, {r0, r1, r2, r3}
 387 008a 9EE80F00 		ldm	lr, {r0, r1, r2, r3}
 388 008e 8CE80F00 		stm	ip, {r0, r1, r2, r3}
  38:sego.cpp      ****     p_ratio.Init(hw.knob3, 0.0f, 7.0f, p_ratio.LINEAR);
 389              		.loc 14 38 17 view .LVU96
 390 0092 6946     		mov	r1, sp
 391 0094 0022     		movs	r2, #0
 392 0096 6148     		ldr	r0, .L7+32
 393 0098 FFF7FEFF 		bl	_ZN5daisy9Parameter4InitENS_13AnalogControlEffNS0_5CurveE
 394              	.LVL7:
 395              	.LBB565:
 396              	.LBI565:
 397              		.loc 2 23 5 is_stmt 1 view .LVU97
 398              		.loc 2 23 5 is_stmt 0 view .LVU98
 399              	.LBE565:
 400              		.loc 14 39 5 is_stmt 1 view .LVU99
 401              		.loc 14 39 21 is_stmt 0 view .LVU100
 402 009c 04F17C0E 		add	lr, r4, #124
 403 00a0 EC46     		mov	ip, sp
 404              		.loc 14 39 17 view .LVU101
 405 00a2 B0EE480A 		vmov.f32	s0, s16
 406 00a6 F1EE0C0A 		vmov.f32	s1, #7.0e+0
 407              		.loc 14 39 21 view .LVU102
 408 00aa BEE80F00 		ldmia	lr!, {r0, r1, r2, r3}
 409 00ae ACE80F00 		stmia	ip!, {r0, r1, r2, r3}
 410 00b2 9EE80F00 		ldm	lr, {r0, r1, r2, r3}
 411 00b6 8CE80F00 		stm	ip, {r0, r1, r2, r3}
 412              		.loc 14 39 17 view .LVU103
 413 00ba 6946     		mov	r1, sp
 414 00bc 0022     		movs	r2, #0
 415 00be 5848     		ldr	r0, .L7+36
 416 00c0 FFF7FEFF 		bl	_ZN5daisy9Parameter4InitENS_13AnalogControlEffNS0_5CurveE
 417              	.LVL8:
 418              	.LBB566:
 419              	.LBI566:
 420              		.loc 2 23 5 is_stmt 1 view .LVU104
 421              		.loc 2 23 5 is_stmt 0 view .LVU105
 422              	.LBE566:
  40:sego.cpp      ****     p_feedback.Init(hw.knob4, 0.0f, 2.5f, p_feedback.LINEAR);
 423              		.loc 14 40 5 is_stmt 1 view .LVU106
 424              		.loc 14 40 24 is_stmt 0 view .LVU107
 425 00c4 04F19C0E 		add	lr, r4, #156
 426 00c8 EC46     		mov	ip, sp
 427              		.loc 14 40 20 view .LVU108
 428 00ca B0EE480A 		vmov.f32	s0, s16
 429 00ce F0EE040A 		vmov.f32	s1, #2.5e+0
 430              		.loc 14 40 24 view .LVU109
 431 00d2 BEE80F00 		ldmia	lr!, {r0, r1, r2, r3}
 432 00d6 ACE80F00 		stmia	ip!, {r0, r1, r2, r3}
ARM GAS  C:\Users\ashgr\AppData\Local\Temp\ccMnbzlT.s 			page 20


 433 00da 9EE80F00 		ldm	lr, {r0, r1, r2, r3}
 434 00de 8CE80F00 		stm	ip, {r0, r1, r2, r3}
 435              		.loc 14 40 20 view .LVU110
 436 00e2 6946     		mov	r1, sp
 437 00e4 0022     		movs	r2, #0
 438 00e6 4F48     		ldr	r0, .L7+40
 439 00e8 FFF7FEFF 		bl	_ZN5daisy9Parameter4InitENS_13AnalogControlEffNS0_5CurveE
 440              	.LVL9:
 441              	.LBB567:
 442              	.LBI567:
 443              		.loc 2 23 5 is_stmt 1 view .LVU111
 444              		.loc 2 23 5 is_stmt 0 view .LVU112
 445              	.LBE567:
  41:sego.cpp      ****     p_freq2.Init(hw.knob5, 0.5f, 2.0f, p_freq2.LINEAR);
 446              		.loc 14 41 5 is_stmt 1 view .LVU113
 447              		.loc 14 41 21 is_stmt 0 view .LVU114
 448 00ec 04F1BC0E 		add	lr, r4, #188
 449 00f0 EC46     		mov	ip, sp
 450              		.loc 14 41 17 view .LVU115
 451 00f2 00EE108A 		vmov	s0, r8
 452 00f6 F0EE000A 		vmov.f32	s1, #2.0e+0
 453              		.loc 14 41 21 view .LVU116
 454 00fa BEE80F00 		ldmia	lr!, {r0, r1, r2, r3}
 455 00fe ACE80F00 		stmia	ip!, {r0, r1, r2, r3}
 456 0102 9EE80F00 		ldm	lr, {r0, r1, r2, r3}
 457 0106 8CE80F00 		stm	ip, {r0, r1, r2, r3}
 458              		.loc 14 41 17 view .LVU117
 459 010a 6946     		mov	r1, sp
 460 010c 0022     		movs	r2, #0
 461 010e 4648     		ldr	r0, .L7+44
 462 0110 FFF7FEFF 		bl	_ZN5daisy9Parameter4InitENS_13AnalogControlEffNS0_5CurveE
 463              	.LVL10:
 464              	.LBB568:
 465              	.LBI568:
 466              		.loc 2 23 5 is_stmt 1 view .LVU118
 467              		.loc 2 23 5 is_stmt 0 view .LVU119
 468              	.LBE568:
  42:sego.cpp      ****     p_offset.Init(hw.knob6, 0.0f, 1.0f, p_offset.LINEAR);
 469              		.loc 14 42 5 is_stmt 1 view .LVU120
 470              		.loc 14 42 22 is_stmt 0 view .LVU121
 471 0114 04F1DC0E 		add	lr, r4, #220
 472 0118 EC46     		mov	ip, sp
 473              		.loc 14 42 18 view .LVU122
 474 011a B0EE480A 		vmov.f32	s0, s16
 475 011e F7EE000A 		vmov.f32	s1, #1.0e+0
 476              		.loc 14 42 22 view .LVU123
 477 0122 BEE80F00 		ldmia	lr!, {r0, r1, r2, r3}
 478 0126 ACE80F00 		stmia	ip!, {r0, r1, r2, r3}
 479 012a 9EE80F00 		ldm	lr, {r0, r1, r2, r3}
 480 012e 8CE80F00 		stm	ip, {r0, r1, r2, r3}
 481              		.loc 14 42 18 view .LVU124
 482 0132 6946     		mov	r1, sp
 483 0134 0022     		movs	r2, #0
 484 0136 3D48     		ldr	r0, .L7+48
 485 0138 FFF7FEFF 		bl	_ZN5daisy9Parameter4InitENS_13AnalogControlEffNS0_5CurveE
 486              	.LVL11:
 487              	.LBB569:
ARM GAS  C:\Users\ashgr\AppData\Local\Temp\ccMnbzlT.s 			page 21


 488              	.LBI569:
 489              		.loc 2 23 5 is_stmt 1 view .LVU125
 490              		.loc 2 23 5 is_stmt 0 view .LVU126
 491              	.LBE569:
  43:sego.cpp      **** 
  44:sego.cpp      ****     p_cv1.Init(hw.knob7, 0.5f, -0.5f, p_cv1.LINEAR);
 492              		.loc 14 44 5 is_stmt 1 view .LVU127
 493              		.loc 14 44 19 is_stmt 0 view .LVU128
 494 013c 04F1FC0C 		add	ip, r4, #252
 495 0140 6C46     		mov	r4, sp
 496              		.loc 14 44 15 view .LVU129
 497 0142 FEEE000A 		vmov.f32	s1, #-5.0e-1
 498 0146 00EE108A 		vmov	s0, r8
 499              		.loc 14 44 19 view .LVU130
 500 014a BCE80F00 		ldmia	ip!, {r0, r1, r2, r3}
 501 014e 0FC4     		stmia	r4!, {r0, r1, r2, r3}
 502 0150 9CE80F00 		ldm	ip, {r0, r1, r2, r3}
 503 0154 84E80F00 		stm	r4, {r0, r1, r2, r3}
 504              		.loc 14 44 15 view .LVU131
 505 0158 6946     		mov	r1, sp
 506 015a 0022     		movs	r2, #0
 507 015c 3448     		ldr	r0, .L7+52
 508 015e FFF7FEFF 		bl	_ZN5daisy9Parameter4InitENS_13AnalogControlEffNS0_5CurveE
 509              	.LVL12:
 510              	.LBB570:
 511              	.LBI570:
 512              		.loc 2 23 5 is_stmt 1 view .LVU132
 513              		.loc 2 23 5 is_stmt 0 view .LVU133
 514              	.LBE570:
  45:sego.cpp      ****     
  46:sego.cpp      **** 
  47:sego.cpp      ****     osc1.Init(samplerate);
 515              		.loc 14 47 5 is_stmt 1 view .LVU134
 516              	.LBB571:
 517              	.LBI547:
  36:../../DaisySP/Source/Synthesis/cso.h ****     {
 518              		.loc 13 36 10 view .LVU135
 519              	.LBB552:
  38:../../DaisySP/Source/Synthesis/cso.h ****         sr_recip_  = 1.0f / sample_rate;
 520              		.loc 13 38 9 view .LVU136
  39:../../DaisySP/Source/Synthesis/cso.h ****         freq_      = 440.0f;
 521              		.loc 13 39 27 is_stmt 0 view .LVU137
 522 0162 F7EE007A 		vmov.f32	s15, #1.0e+0
  47:../../DaisySP/Source/Synthesis/cso.h ****         prev_out_  = 0.0f;
 523              		.loc 13 47 34 view .LVU138
 524 0166 3046     		mov	r0, r6
 525 0168 B0EE490A 		vmov.f32	s0, s18
  38:../../DaisySP/Source/Synthesis/cso.h ****         sr_recip_  = 1.0f / sample_rate;
 526              		.loc 13 38 20 view .LVU139
 527 016c C6ED068A 		vstr.32	s17, [r6, #24]
  39:../../DaisySP/Source/Synthesis/cso.h ****         freq_      = 440.0f;
 528              		.loc 13 39 9 is_stmt 1 view .LVU140
  39:../../DaisySP/Source/Synthesis/cso.h ****         freq_      = 440.0f;
 529              		.loc 13 39 27 is_stmt 0 view .LVU141
 530 0170 C7EEA89A 		vdiv.f32	s19, s15, s17
  40:../../DaisySP/Source/Synthesis/cso.h ****         ratio_     = 0.0f;
 531              		.loc 13 40 20 view .LVU142
ARM GAS  C:\Users\ashgr\AppData\Local\Temp\ccMnbzlT.s 			page 22


 532 0174 86ED019A 		vstr.32	s18, [r6, #4]
  41:../../DaisySP/Source/Synthesis/cso.h ****         width_     = 0.5f;
 533              		.loc 13 41 20 view .LVU143
 534 0178 86ED028A 		vstr.32	s16, [r6, #8]
  42:../../DaisySP/Source/Synthesis/cso.h ****         feedback_  = 0.0f;
 535              		.loc 13 42 20 view .LVU144
 536 017c C6F80C80 		str	r8, [r6, #12]	@ float
  43:../../DaisySP/Source/Synthesis/cso.h ****         offset_    = 0.0f;
 537              		.loc 13 43 20 view .LVU145
 538 0180 86ED048A 		vstr.32	s16, [r6, #16]
  44:../../DaisySP/Source/Synthesis/cso.h ****         amp_       = 0.5f;
 539              		.loc 13 44 20 view .LVU146
 540 0184 86ED058A 		vstr.32	s16, [r6, #20]
  45:../../DaisySP/Source/Synthesis/cso.h ****         phase_     = 0.0f;
 541              		.loc 13 45 20 view .LVU147
 542 0188 C6F80080 		str	r8, [r6]	@ float
  46:../../DaisySP/Source/Synthesis/cso.h ****         phase_inc_ = CalcPhaseInc(freq_);
 543              		.loc 13 46 20 view .LVU148
 544 018c 86ED088A 		vstr.32	s16, [r6, #32]
 545              	.LBE552:
 546              	.LBE571:
  48:sego.cpp      ****     osc2.Init(samplerate);
  49:sego.cpp      **** 
  50:sego.cpp      ****     range = 0;
 547              		.loc 14 50 11 view .LVU149
 548 0190 284C     		ldr	r4, .L7+56
 549              	.LBB572:
 550              	.LBB553:
  39:../../DaisySP/Source/Synthesis/cso.h ****         freq_      = 440.0f;
 551              		.loc 13 39 20 view .LVU150
 552 0192 C6ED079A 		vstr.32	s19, [r6, #28]
  40:../../DaisySP/Source/Synthesis/cso.h ****         ratio_     = 0.0f;
 553              		.loc 13 40 9 is_stmt 1 view .LVU151
  41:../../DaisySP/Source/Synthesis/cso.h ****         width_     = 0.5f;
 554              		.loc 13 41 9 view .LVU152
  42:../../DaisySP/Source/Synthesis/cso.h ****         feedback_  = 0.0f;
 555              		.loc 13 42 9 view .LVU153
  43:../../DaisySP/Source/Synthesis/cso.h ****         offset_    = 0.0f;
 556              		.loc 13 43 9 view .LVU154
  44:../../DaisySP/Source/Synthesis/cso.h ****         amp_       = 0.5f;
 557              		.loc 13 44 9 view .LVU155
  45:../../DaisySP/Source/Synthesis/cso.h ****         phase_     = 0.0f;
 558              		.loc 13 45 9 view .LVU156
  46:../../DaisySP/Source/Synthesis/cso.h ****         phase_inc_ = CalcPhaseInc(freq_);
 559              		.loc 13 46 9 view .LVU157
  47:../../DaisySP/Source/Synthesis/cso.h ****         prev_out_  = 0.0f;
 560              		.loc 13 47 9 view .LVU158
  47:../../DaisySP/Source/Synthesis/cso.h ****         prev_out_  = 0.0f;
 561              		.loc 13 47 34 is_stmt 0 view .LVU159
 562 0196 FFF7FEFF 		bl	_ZN7daisysp3Cso12CalcPhaseIncEf
 563              	.LVL13:
 564 019a F0EE407A 		vmov.f32	s15, s0
 565              	.LBE553:
 566              	.LBE572:
 567              	.LBB573:
 568              	.LBB559:
 569 019e 2846     		mov	r0, r5
ARM GAS  C:\Users\ashgr\AppData\Local\Temp\ccMnbzlT.s 			page 23


 570 01a0 B0EE490A 		vmov.f32	s0, s18
 571              	.LBE559:
 572              	.LBE573:
 573              	.LBB574:
 574              	.LBB554:
  48:../../DaisySP/Source/Synthesis/cso.h ****         eoc_       = true;
 575              		.loc 13 48 20 view .LVU160
 576 01a4 86ED0A8A 		vstr.32	s16, [r6, #40]
 577              		.loc 13 50 20 view .LVU161
 578 01a8 B785     		strh	r7, [r6, #44]	@ movhi
  47:../../DaisySP/Source/Synthesis/cso.h ****         prev_out_  = 0.0f;
 579              		.loc 13 47 20 view .LVU162
 580 01aa C6ED097A 		vstr.32	s15, [r6, #36]
  48:../../DaisySP/Source/Synthesis/cso.h ****         eoc_       = true;
 581              		.loc 13 48 9 is_stmt 1 view .LVU163
  49:../../DaisySP/Source/Synthesis/cso.h ****         eor_       = true;
 582              		.loc 13 49 9 view .LVU164
 583              		.loc 13 50 9 view .LVU165
 584              	.LVL14:
 585              		.loc 13 50 9 is_stmt 0 view .LVU166
 586              	.LBE554:
 587              	.LBE574:
  48:sego.cpp      **** 
 588              		.loc 14 48 5 is_stmt 1 view .LVU167
 589              	.LBB575:
 590              	.LBI557:
  36:../../DaisySP/Source/Synthesis/cso.h ****     {
 591              		.loc 13 36 10 view .LVU168
 592              	.LBB560:
  38:../../DaisySP/Source/Synthesis/cso.h ****         sr_recip_  = 1.0f / sample_rate;
 593              		.loc 13 38 9 view .LVU169
  38:../../DaisySP/Source/Synthesis/cso.h ****         sr_recip_  = 1.0f / sample_rate;
 594              		.loc 13 38 20 is_stmt 0 view .LVU170
 595 01ae C5ED068A 		vstr.32	s17, [r5, #24]
  39:../../DaisySP/Source/Synthesis/cso.h ****         freq_      = 440.0f;
 596              		.loc 13 39 9 is_stmt 1 view .LVU171
  39:../../DaisySP/Source/Synthesis/cso.h ****         freq_      = 440.0f;
 597              		.loc 13 39 20 is_stmt 0 view .LVU172
 598 01b2 C5ED079A 		vstr.32	s19, [r5, #28]
  40:../../DaisySP/Source/Synthesis/cso.h ****         ratio_     = 0.0f;
 599              		.loc 13 40 9 is_stmt 1 view .LVU173
  40:../../DaisySP/Source/Synthesis/cso.h ****         ratio_     = 0.0f;
 600              		.loc 13 40 20 is_stmt 0 view .LVU174
 601 01b6 85ED019A 		vstr.32	s18, [r5, #4]
  41:../../DaisySP/Source/Synthesis/cso.h ****         width_     = 0.5f;
 602              		.loc 13 41 9 is_stmt 1 view .LVU175
  41:../../DaisySP/Source/Synthesis/cso.h ****         width_     = 0.5f;
 603              		.loc 13 41 20 is_stmt 0 view .LVU176
 604 01ba 85ED028A 		vstr.32	s16, [r5, #8]
  42:../../DaisySP/Source/Synthesis/cso.h ****         feedback_  = 0.0f;
 605              		.loc 13 42 9 is_stmt 1 view .LVU177
  42:../../DaisySP/Source/Synthesis/cso.h ****         feedback_  = 0.0f;
 606              		.loc 13 42 20 is_stmt 0 view .LVU178
 607 01be C5F80C80 		str	r8, [r5, #12]	@ float
  43:../../DaisySP/Source/Synthesis/cso.h ****         offset_    = 0.0f;
 608              		.loc 13 43 9 is_stmt 1 view .LVU179
  43:../../DaisySP/Source/Synthesis/cso.h ****         offset_    = 0.0f;
ARM GAS  C:\Users\ashgr\AppData\Local\Temp\ccMnbzlT.s 			page 24


 609              		.loc 13 43 20 is_stmt 0 view .LVU180
 610 01c2 85ED048A 		vstr.32	s16, [r5, #16]
  44:../../DaisySP/Source/Synthesis/cso.h ****         amp_       = 0.5f;
 611              		.loc 13 44 9 is_stmt 1 view .LVU181
  44:../../DaisySP/Source/Synthesis/cso.h ****         amp_       = 0.5f;
 612              		.loc 13 44 20 is_stmt 0 view .LVU182
 613 01c6 85ED058A 		vstr.32	s16, [r5, #20]
  45:../../DaisySP/Source/Synthesis/cso.h ****         phase_     = 0.0f;
 614              		.loc 13 45 9 is_stmt 1 view .LVU183
  45:../../DaisySP/Source/Synthesis/cso.h ****         phase_     = 0.0f;
 615              		.loc 13 45 20 is_stmt 0 view .LVU184
 616 01ca C5F80080 		str	r8, [r5]	@ float
  46:../../DaisySP/Source/Synthesis/cso.h ****         phase_inc_ = CalcPhaseInc(freq_);
 617              		.loc 13 46 9 is_stmt 1 view .LVU185
  46:../../DaisySP/Source/Synthesis/cso.h ****         phase_inc_ = CalcPhaseInc(freq_);
 618              		.loc 13 46 20 is_stmt 0 view .LVU186
 619 01ce 85ED088A 		vstr.32	s16, [r5, #32]
  47:../../DaisySP/Source/Synthesis/cso.h ****         prev_out_  = 0.0f;
 620              		.loc 13 47 9 is_stmt 1 view .LVU187
  47:../../DaisySP/Source/Synthesis/cso.h ****         prev_out_  = 0.0f;
 621              		.loc 13 47 34 is_stmt 0 view .LVU188
 622 01d2 FFF7FEFF 		bl	_ZN7daisysp3Cso12CalcPhaseIncEf
 623              	.LVL15:
 624              	.LBE560:
 625              	.LBE575:
 626              		.loc 14 50 11 view .LVU189
 627 01d6 0023     		movs	r3, #0
  51:sego.cpp      ****     mode  = 0;
 628              		.loc 14 51 11 view .LVU190
 629 01d8 1748     		ldr	r0, .L7+60
  52:sego.cpp      ****     scale = 0;
 630              		.loc 14 52 11 view .LVU191
 631 01da 1849     		ldr	r1, .L7+64
  53:sego.cpp      ****     shift = 0;
 632              		.loc 14 53 11 view .LVU192
 633 01dc 184A     		ldr	r2, .L7+68
 634              	.LBB576:
 635              	.LBB561:
  48:../../DaisySP/Source/Synthesis/cso.h ****         eoc_       = true;
 636              		.loc 13 48 20 view .LVU193
 637 01de 85ED0A8A 		vstr.32	s16, [r5, #40]
  47:../../DaisySP/Source/Synthesis/cso.h ****         prev_out_  = 0.0f;
 638              		.loc 13 47 20 view .LVU194
 639 01e2 85ED090A 		vstr.32	s0, [r5, #36]
  48:../../DaisySP/Source/Synthesis/cso.h ****         eoc_       = true;
 640              		.loc 13 48 9 is_stmt 1 view .LVU195
  49:../../DaisySP/Source/Synthesis/cso.h ****         eor_       = true;
 641              		.loc 13 49 9 view .LVU196
 642              		.loc 13 50 9 view .LVU197
 643              		.loc 13 50 20 is_stmt 0 view .LVU198
 644 01e6 AF85     		strh	r7, [r5, #44]	@ movhi
 645              	.LVL16:
 646              		.loc 13 50 20 view .LVU199
 647              	.LBE561:
 648              	.LBE576:
  50:sego.cpp      ****     mode  = 0;
 649              		.loc 14 50 5 is_stmt 1 view .LVU200
ARM GAS  C:\Users\ashgr\AppData\Local\Temp\ccMnbzlT.s 			page 25


  50:sego.cpp      ****     mode  = 0;
 650              		.loc 14 50 11 is_stmt 0 view .LVU201
 651 01e8 2360     		str	r3, [r4]
  51:sego.cpp      ****     scale = 0;
 652              		.loc 14 51 5 is_stmt 1 view .LVU202
  51:sego.cpp      ****     scale = 0;
 653              		.loc 14 51 11 is_stmt 0 view .LVU203
 654 01ea 0360     		str	r3, [r0]
  52:sego.cpp      ****     shift = 0;
 655              		.loc 14 52 5 is_stmt 1 view .LVU204
  52:sego.cpp      ****     shift = 0;
 656              		.loc 14 52 11 is_stmt 0 view .LVU205
 657 01ec 0B60     		str	r3, [r1]
 658              		.loc 14 53 5 is_stmt 1 view .LVU206
 659              		.loc 14 53 11 is_stmt 0 view .LVU207
 660 01ee 1360     		str	r3, [r2]
  54:sego.cpp      **** 
  55:sego.cpp      **** }
 661              		.loc 14 55 1 view .LVU208
 662 01f0 08B0     		add	sp, sp, #32
 663              		.cfi_def_cfa_offset 40
 664              		@ sp needed
 665 01f2 BDEC048B 		vldm	sp!, {d8-d9}
 666              		.cfi_restore 82
 667              		.cfi_restore 83
 668              		.cfi_restore 80
 669              		.cfi_restore 81
 670              		.cfi_def_cfa_offset 24
 671 01f6 BDE8F081 		pop	{r4, r5, r6, r7, r8, pc}
 672              	.L8:
 673 01fa 00BF     		.align	2
 674              	.L7:
 675 01fc 00000000 		.word	hw
 676 0200 0000A842 		.word	1118306304
 677 0204 00000000 		.word	.LANCHOR8
 678 0208 00000000 		.word	.LANCHOR9
 679 020c 00000000 		.word	0
 680 0210 0000DC43 		.word	1138491392
 681 0214 00000000 		.word	.LANCHOR0
 682 0218 00000000 		.word	.LANCHOR1
 683 021c 00000000 		.word	.LANCHOR2
 684 0220 00000000 		.word	.LANCHOR3
 685 0224 00000000 		.word	.LANCHOR4
 686 0228 00000000 		.word	.LANCHOR5
 687 022c 00000000 		.word	.LANCHOR6
 688 0230 00000000 		.word	.LANCHOR7
 689 0234 00000000 		.word	.LANCHOR10
 690 0238 00000000 		.word	.LANCHOR11
 691 023c 00000000 		.word	.LANCHOR12
 692 0240 00000000 		.word	.LANCHOR13
 693              		.cfi_endproc
 694              	.LFE4323:
 696              		.section	.text._Z11UpdateKnobsv,"ax",%progbits
 697              		.align	1
 698              		.p2align 2,,3
 699              		.global	_Z11UpdateKnobsv
 700              		.syntax unified
ARM GAS  C:\Users\ashgr\AppData\Local\Temp\ccMnbzlT.s 			page 26


 701              		.thumb
 702              		.thumb_func
 703              		.fpu fpv5-d16
 705              	_Z11UpdateKnobsv:
 706              	.LFB4324:
  56:sego.cpp      **** 
  57:sego.cpp      **** void UpdateKnobs()
  58:sego.cpp      **** {
 707              		.loc 14 58 1 is_stmt 1 view -0
 708              		.cfi_startproc
 709              		@ args = 0, pretend = 0, frame = 0
 710              		@ frame_needed = 0, uses_anonymous_args = 0
  59:sego.cpp      ****     freq1       = p_freq1.Process();
 711              		.loc 14 59 5 view .LVU210
  58:sego.cpp      ****     freq1       = p_freq1.Process();
 712              		.loc 14 58 1 is_stmt 0 view .LVU211
 713 0000 2DE9F84F 		push	{r3, r4, r5, r6, r7, r8, r9, r10, fp, lr}
 714              		.cfi_def_cfa_offset 40
 715              		.cfi_offset 3, -40
 716              		.cfi_offset 4, -36
 717              		.cfi_offset 5, -32
 718              		.cfi_offset 6, -28
 719              		.cfi_offset 7, -24
 720              		.cfi_offset 8, -20
 721              		.cfi_offset 9, -16
 722              		.cfi_offset 10, -12
 723              		.cfi_offset 11, -8
 724              		.cfi_offset 14, -4
 725              		.loc 14 59 34 view .LVU212
 726 0004 5648     		ldr	r0, .L25
 727              		.loc 14 59 17 view .LVU213
 728 0006 574C     		ldr	r4, .L25+4
 729              		.loc 14 59 34 view .LVU214
 730 0008 FFF7FEFF 		bl	_ZN5daisy9Parameter7ProcessEv
 731              	.LVL17:
  60:sego.cpp      ****     freq1_ratio = p_freq1_ratio.Process();
 732              		.loc 14 60 17 view .LVU215
 733 000c 564D     		ldr	r5, .L25+8
 734              		.loc 14 60 40 view .LVU216
 735 000e 5748     		ldr	r0, .L25+12
  61:sego.cpp      ****     width       = p_width.Process();
 736              		.loc 14 61 17 view .LVU217
 737 0010 DFF89491 		ldr	r9, .L25+72
  59:sego.cpp      ****     freq1_ratio = p_freq1_ratio.Process();
 738              		.loc 14 59 17 view .LVU218
 739 0014 84ED000A 		vstr.32	s0, [r4]
  60:sego.cpp      ****     freq1_ratio = p_freq1_ratio.Process();
 740              		.loc 14 60 5 is_stmt 1 view .LVU219
  60:sego.cpp      ****     freq1_ratio = p_freq1_ratio.Process();
 741              		.loc 14 60 40 is_stmt 0 view .LVU220
 742 0018 FFF7FEFF 		bl	_ZN5daisy9Parameter7ProcessEv
 743              	.LVL18:
 744              		.loc 14 61 34 view .LVU221
 745 001c 5448     		ldr	r0, .L25+16
  62:sego.cpp      ****     ratio       = p_ratio.Process();
 746              		.loc 14 62 17 view .LVU222
 747 001e DFF88C81 		ldr	r8, .L25+76
ARM GAS  C:\Users\ashgr\AppData\Local\Temp\ccMnbzlT.s 			page 27


  60:sego.cpp      ****     width       = p_width.Process();
 748              		.loc 14 60 17 view .LVU223
 749 0022 85ED000A 		vstr.32	s0, [r5]
  61:sego.cpp      ****     ratio       = p_ratio.Process();
 750              		.loc 14 61 5 is_stmt 1 view .LVU224
  61:sego.cpp      ****     ratio       = p_ratio.Process();
 751              		.loc 14 61 34 is_stmt 0 view .LVU225
 752 0026 FFF7FEFF 		bl	_ZN5daisy9Parameter7ProcessEv
 753              	.LVL19:
 754              		.loc 14 62 34 view .LVU226
 755 002a 5248     		ldr	r0, .L25+20
  63:sego.cpp      ****     feedback    = p_feedback.Process();
 756              		.loc 14 63 17 view .LVU227
 757 002c 524F     		ldr	r7, .L25+24
  61:sego.cpp      ****     ratio       = p_ratio.Process();
 758              		.loc 14 61 17 view .LVU228
 759 002e 89ED000A 		vstr.32	s0, [r9]
  62:sego.cpp      ****     feedback    = p_feedback.Process();
 760              		.loc 14 62 5 is_stmt 1 view .LVU229
  62:sego.cpp      ****     feedback    = p_feedback.Process();
 761              		.loc 14 62 34 is_stmt 0 view .LVU230
 762 0032 FFF7FEFF 		bl	_ZN5daisy9Parameter7ProcessEv
 763              	.LVL20:
 764              		.loc 14 63 37 view .LVU231
 765 0036 5148     		ldr	r0, .L25+28
  64:sego.cpp      ****     freq2       = p_freq2.Process();
 766              		.loc 14 64 17 view .LVU232
 767 0038 DFF874A1 		ldr	r10, .L25+80
  62:sego.cpp      ****     feedback    = p_feedback.Process();
 768              		.loc 14 62 17 view .LVU233
 769 003c 88ED000A 		vstr.32	s0, [r8]
  63:sego.cpp      ****     feedback    = p_feedback.Process();
 770              		.loc 14 63 5 is_stmt 1 view .LVU234
  63:sego.cpp      ****     feedback    = p_feedback.Process();
 771              		.loc 14 63 37 is_stmt 0 view .LVU235
 772 0040 FFF7FEFF 		bl	_ZN5daisy9Parameter7ProcessEv
 773              	.LVL21:
 774              		.loc 14 64 34 view .LVU236
 775 0044 4E48     		ldr	r0, .L25+32
  65:sego.cpp      ****     offset      = p_offset.Process();
 776              		.loc 14 65 17 view .LVU237
 777 0046 4F4E     		ldr	r6, .L25+36
  63:sego.cpp      ****     freq2       = p_freq2.Process();
 778              		.loc 14 63 17 view .LVU238
 779 0048 87ED000A 		vstr.32	s0, [r7]
  64:sego.cpp      ****     freq2       = p_freq2.Process();
 780              		.loc 14 64 5 is_stmt 1 view .LVU239
  64:sego.cpp      ****     freq2       = p_freq2.Process();
 781              		.loc 14 64 34 is_stmt 0 view .LVU240
 782 004c FFF7FEFF 		bl	_ZN5daisy9Parameter7ProcessEv
 783              	.LVL22:
 784              		.loc 14 65 35 view .LVU241
 785 0050 4D48     		ldr	r0, .L25+40
  64:sego.cpp      ****     freq2       = p_freq2.Process();
 786              		.loc 14 64 17 view .LVU242
 787 0052 8AED000A 		vstr.32	s0, [r10]
 788              		.loc 14 65 5 is_stmt 1 view .LVU243
ARM GAS  C:\Users\ashgr\AppData\Local\Temp\ccMnbzlT.s 			page 28


 789              		.loc 14 65 35 is_stmt 0 view .LVU244
 790 0056 FFF7FEFF 		bl	_ZN5daisy9Parameter7ProcessEv
 791              	.LVL23:
  66:sego.cpp      **** 
  67:sego.cpp      ****     cv1         = p_cv1.Process();
 792              		.loc 14 67 32 view .LVU245
 793 005a 4C48     		ldr	r0, .L25+44
  65:sego.cpp      **** 
 794              		.loc 14 65 17 view .LVU246
 795 005c 86ED000A 		vstr.32	s0, [r6]
 796              		.loc 14 67 5 is_stmt 1 view .LVU247
 797              		.loc 14 67 32 is_stmt 0 view .LVU248
 798 0060 FFF7FEFF 		bl	_ZN5daisy9Parameter7ProcessEv
 799              	.LVL24:
  68:sego.cpp      **** 
  69:sego.cpp      ****     switch(range)
  70:sego.cpp      ****     {
  71:sego.cpp      ****         case 0:
  72:sego.cpp      ****             break;
  73:sego.cpp      ****         case 1:
  74:sego.cpp      ****             break;
  75:sego.cpp      ****         case 2:
  76:sego.cpp      ****             break;
  77:sego.cpp      ****         default:
  78:sego.cpp      ****             break;
  79:sego.cpp      ****     }
  80:sego.cpp      **** 
  81:sego.cpp      ****     switch(mode)
  82:sego.cpp      ****     {
  83:sego.cpp      ****         case 0:
  84:sego.cpp      ****             break;
  85:sego.cpp      ****         case 1:
  86:sego.cpp      ****             break;
  87:sego.cpp      ****         case 2:
  88:sego.cpp      ****             break;
  89:sego.cpp      ****         case 3:
  90:sego.cpp      ****             break;
  91:sego.cpp      ****         default:
  92:sego.cpp      ****             break;
  93:sego.cpp      ****     }
  94:sego.cpp      **** 
  95:sego.cpp      ****     switch(scale)
 800              		.loc 14 95 5 view .LVU249
 801 0064 4A4B     		ldr	r3, .L25+48
  67:sego.cpp      **** 
 802              		.loc 14 67 17 view .LVU250
 803 0066 DFF84CB1 		ldr	fp, .L25+84
 804              		.loc 14 95 5 view .LVU251
 805 006a 1B68     		ldr	r3, [r3]
  67:sego.cpp      **** 
 806              		.loc 14 67 17 view .LVU252
 807 006c 8BED000A 		vstr.32	s0, [fp]
  69:sego.cpp      ****     {
 808              		.loc 14 69 5 is_stmt 1 view .LVU253
  81:sego.cpp      ****     {
 809              		.loc 14 81 5 view .LVU254
 810              		.loc 14 95 5 view .LVU255
ARM GAS  C:\Users\ashgr\AppData\Local\Temp\ccMnbzlT.s 			page 29


 811 0070 012B     		cmp	r3, #1
 812 0072 62D0     		beq	.L10
 813 0074 022B     		cmp	r3, #2
 814 0076 59D0     		beq	.L11
 815 0078 5BB3     		cbz	r3, .L21
 816 007a F0EE407A 		vmov.f32	s15, s0
 817 007e 454D     		ldr	r5, .L25+52
 818 0080 454C     		ldr	r4, .L25+56
 819              	.L12:
  96:sego.cpp      ****     {
  97:sego.cpp      ****         case 0:
  98:sego.cpp      ****             //Quantize: n/a (free-running VCO)
  99:sego.cpp      ****             freq1 = mtof(freq1);
 100:sego.cpp      ****             osc1.SetFreq(freq1);
 101:sego.cpp      ****             osc2.SetFreq(freq1 * freq2);
 102:sego.cpp      ****             break;
 103:sego.cpp      ****         case 1:
 104:sego.cpp      ****             //Quantize: 12TET
 105:sego.cpp      ****             freq1 = mtof(roundf(freq1));
 106:sego.cpp      ****             osc1.SetFreq(freq1);
 107:sego.cpp      ****             osc2.SetFreq(freq1 * freq2);
 108:sego.cpp      ****             break;
 109:sego.cpp      ****         case 2:
 110:sego.cpp      ****             //Quantize: Mult/div of A440 (?)
 111:sego.cpp      ****             freq1 = mtof(24.0f) * roundf(freq1_ratio);
 112:sego.cpp      ****             osc1.SetFreq(freq1);
 113:sego.cpp      ****             osc2.SetFreq(freq1 * freq2);
 114:sego.cpp      ****             break;
 115:sego.cpp      ****         default:
 116:sego.cpp      ****             break;
 117:sego.cpp      ****     }
 118:sego.cpp      **** 
 119:sego.cpp      ****     switch(shift)
 820              		.loc 14 119 5 view .LVU256
 120:sego.cpp      ****     {
 121:sego.cpp      ****         case 0:
 122:sego.cpp      ****             break;
 123:sego.cpp      ****         case 1:
 124:sego.cpp      ****             break;
 125:sego.cpp      ****         default:
 126:sego.cpp      ****             break;
 127:sego.cpp      ****     }
 128:sego.cpp      **** 
 129:sego.cpp      **** 
 130:sego.cpp      ****     //osc1.SetFreq(freq1);
 131:sego.cpp      ****     if(width + cv1 < 0.5f)
 821              		.loc 14 131 5 view .LVU257
 822              		.loc 14 131 14 is_stmt 0 view .LVU258
 823 0082 99ED000A 		vldr.32	s0, [r9]
 824              		.loc 14 131 5 view .LVU259
 825 0086 B6EE007A 		vmov.f32	s14, #5.0e-1
 826              		.loc 14 131 14 view .LVU260
 827 008a 37EE800A 		vadd.f32	s0, s15, s0
 132:sego.cpp      ****     {
 133:sego.cpp      ****         osc1.SetWidth(0.5f);
 134:sego.cpp      ****         osc2.SetWidth(0.5f);
 135:sego.cpp      ****     }
ARM GAS  C:\Users\ashgr\AppData\Local\Temp\ccMnbzlT.s 			page 30


 136:sego.cpp      ****     if(width + cv1 > 1.0f)
 828              		.loc 14 136 5 view .LVU261
 829 008e F7EE007A 		vmov.f32	s15, #1.0e+0
 131:sego.cpp      ****     {
 830              		.loc 14 131 5 view .LVU262
 831 0092 B4EEC70A 		vcmpe.f32	s0, s14
 832 0096 F1EE10FA 		vmrs	APSR_nzcv, FPSCR
 133:sego.cpp      ****         osc2.SetWidth(0.5f);
 833              		.loc 14 133 9 is_stmt 1 view .LVU263
 834              	.LVL25:
  51:../../DaisySP/Source/Synthesis/cso.h ****     }
  52:../../DaisySP/Source/Synthesis/cso.h **** 
  53:../../DaisySP/Source/Synthesis/cso.h ****     //FREQ: Fundamental frequency (Hz) of the oscillator
  54:../../DaisySP/Source/Synthesis/cso.h ****     inline void SetFreq(const float f)
  55:../../DaisySP/Source/Synthesis/cso.h ****     {
  56:../../DaisySP/Source/Synthesis/cso.h ****         freq_      = f;
  57:../../DaisySP/Source/Synthesis/cso.h ****         phase_inc_ = CalcPhaseInc(f);
  58:../../DaisySP/Source/Synthesis/cso.h ****     }
  59:../../DaisySP/Source/Synthesis/cso.h **** 
  60:../../DaisySP/Source/Synthesis/cso.h ****     //RATIO: Ratio of resonator frequency to carrier/fundamental frequency
  61:../../DaisySP/Source/Synthesis/cso.h ****     //Normalized s.t. ratio_ += 1 ==> resonator frequncy goes up an octave
  62:../../DaisySP/Source/Synthesis/cso.h ****     inline void SetRatio(const float r)
  63:../../DaisySP/Source/Synthesis/cso.h ****     {
  64:../../DaisySP/Source/Synthesis/cso.h ****         ratio_ = r;
  65:../../DaisySP/Source/Synthesis/cso.h ****     }
  66:../../DaisySP/Source/Synthesis/cso.h **** 
  67:../../DaisySP/Source/Synthesis/cso.h ****     //WIDTH: Phase value at which the output switches from outputting the carrier to outputting the
  68:../../DaisySP/Source/Synthesis/cso.h ****     //Normalized s.t. [0:1] ==> [0pi:2pi]
  69:../../DaisySP/Source/Synthesis/cso.h ****     //Currently set to only go from 0.5 to 1.0
  70:../../DaisySP/Source/Synthesis/cso.h ****     //Resonator always switches back to carrier at 0pi
  71:../../DaisySP/Source/Synthesis/cso.h ****     inline void SetWidth(const float w)
  72:../../DaisySP/Source/Synthesis/cso.h ****     {
  73:../../DaisySP/Source/Synthesis/cso.h ****         width_ = w;
 835              		.loc 13 73 9 view .LVU264
 134:sego.cpp      ****     }
 836              		.loc 14 134 9 view .LVU265
 837              	.LBB613:
 838              	.LBI613:
  71:../../DaisySP/Source/Synthesis/cso.h ****     {
 839              		.loc 13 71 17 view .LVU266
 840              	.LBB614:
 841              		.loc 13 73 9 view .LVU267
 842              	.LBE614:
 843              	.LBE613:
 844              		.loc 14 136 5 is_stmt 0 view .LVU268
 845 009a B4EEE70A 		vcmpe.f32	s0, s15
 846              	.LBB616:
 847              	.LBB615:
 848              		.loc 13 73 16 view .LVU269
 849 009e 48BF     		it	mi
 850 00a0 84ED037A 		vstrmi.32	s14, [r4, #12]
 851              	.LVL26:
 852              		.loc 13 73 16 view .LVU270
 853              	.LBE615:
 854              	.LBE616:
 855              		.loc 14 136 5 is_stmt 1 view .LVU271
 856 00a4 F1EE10FA 		vmrs	APSR_nzcv, FPSCR
ARM GAS  C:\Users\ashgr\AppData\Local\Temp\ccMnbzlT.s 			page 31


 857 00a8 0EDD     		ble	.L22
 137:sego.cpp      ****     {
 138:sego.cpp      ****         osc1.SetWidth(1.0f);
 858              		.loc 14 138 9 view .LVU272
 859              	.LVL27:
 860              	.LBB617:
 861              	.LBI617:
  71:../../DaisySP/Source/Synthesis/cso.h ****     {
 862              		.loc 13 71 17 view .LVU273
 863              	.LBB618:
 864              		.loc 13 73 9 view .LVU274
 865              		.loc 13 73 16 is_stmt 0 view .LVU275
 866 00aa C5ED037A 		vstr.32	s15, [r5, #12]
 867              	.LVL28:
 868              		.loc 13 73 16 view .LVU276
 869              	.LBE618:
 870              	.LBE617:
 139:sego.cpp      ****         osc2.SetWidth(1.0f);
 871              		.loc 14 139 9 is_stmt 1 view .LVU277
 872              	.LBB619:
 873              	.LBI619:
  71:../../DaisySP/Source/Synthesis/cso.h ****     {
 874              		.loc 13 71 17 view .LVU278
 875              	.LBB620:
 876              		.loc 13 73 9 view .LVU279
 877              		.loc 13 73 16 is_stmt 0 view .LVU280
 878 00ae C4ED037A 		vstr.32	s15, [r4, #12]
 879              	.LVL29:
 880              	.L17:
 881              		.loc 13 73 16 view .LVU281
 882              	.LBE620:
 883              	.LBE619:
 140:sego.cpp      ****     }
 141:sego.cpp      ****     else
 142:sego.cpp      ****     {
 143:sego.cpp      ****         osc1.SetWidth(width + cv1);
 144:sego.cpp      ****         osc2.SetWidth(width + cv1); 
 145:sego.cpp      ****     }
 146:sego.cpp      ****     
 147:sego.cpp      ****     osc1.SetRatio(ratio);
 884              		.loc 14 147 5 is_stmt 1 view .LVU282
 885              		.loc 14 147 18 is_stmt 0 view .LVU283
 886 00b2 D8F80020 		ldr	r2, [r8]	@ float
 887              	.LVL30:
 888              	.LBB621:
 889              	.LBI621:
  62:../../DaisySP/Source/Synthesis/cso.h ****     {
 890              		.loc 13 62 17 is_stmt 1 view .LVU284
 891              	.LBB622:
  64:../../DaisySP/Source/Synthesis/cso.h ****     }
 892              		.loc 13 64 9 view .LVU285
 893              	.LBE622:
 894              	.LBE621:
 148:sego.cpp      ****     osc1.SetFeedback(feedback);
 895              		.loc 14 148 21 is_stmt 0 view .LVU286
 896 00b6 3B68     		ldr	r3, [r7]	@ float
 897              	.LBB624:
ARM GAS  C:\Users\ashgr\AppData\Local\Temp\ccMnbzlT.s 			page 32


 898              	.LBB625:
  74:../../DaisySP/Source/Synthesis/cso.h ****     }
  75:../../DaisySP/Source/Synthesis/cso.h **** 
  76:../../DaisySP/Source/Synthesis/cso.h ****     //FEEDBACK: Amount of negative phase modulation feedback
  77:../../DaisySP/Source/Synthesis/cso.h ****     //Same as on the Yamaha DX7 et al.
  78:../../DaisySP/Source/Synthesis/cso.h ****     inline void SetFeedback(const float fb)
  79:../../DaisySP/Source/Synthesis/cso.h ****     {
  80:../../DaisySP/Source/Synthesis/cso.h ****         feedback_ = fb;
  81:../../DaisySP/Source/Synthesis/cso.h ****     }
  82:../../DaisySP/Source/Synthesis/cso.h **** 
  83:../../DaisySP/Source/Synthesis/cso.h ****     inline void SetOffset(const float o)
  84:../../DaisySP/Source/Synthesis/cso.h ****     {
  85:../../DaisySP/Source/Synthesis/cso.h ****         offset_ = o;
 899              		.loc 13 85 17 view .LVU287
 900 00b8 3168     		ldr	r1, [r6]	@ float
 901              	.LBE625:
 902              	.LBE624:
 903              	.LBB627:
 904              	.LBB623:
  64:../../DaisySP/Source/Synthesis/cso.h ****     }
 905              		.loc 13 64 16 view .LVU288
 906 00ba AA60     		str	r2, [r5, #8]	@ float
 907              	.LVL31:
  64:../../DaisySP/Source/Synthesis/cso.h ****     }
 908              		.loc 13 64 16 view .LVU289
 909              	.LBE623:
 910              	.LBE627:
 911              		.loc 14 148 5 is_stmt 1 view .LVU290
 912              	.LBB628:
 913              	.LBI628:
  78:../../DaisySP/Source/Synthesis/cso.h ****     {
 914              		.loc 13 78 17 view .LVU291
 915              	.LBB629:
  80:../../DaisySP/Source/Synthesis/cso.h ****     }
 916              		.loc 13 80 9 view .LVU292
  80:../../DaisySP/Source/Synthesis/cso.h ****     }
 917              		.loc 13 80 19 is_stmt 0 view .LVU293
 918 00bc 2B61     		str	r3, [r5, #16]	@ float
 919              	.LVL32:
  80:../../DaisySP/Source/Synthesis/cso.h ****     }
 920              		.loc 13 80 19 view .LVU294
 921              	.LBE629:
 922              	.LBE628:
 149:sego.cpp      **** 
 150:sego.cpp      ****     osc2.SetRatio(ratio);
 923              		.loc 14 150 5 is_stmt 1 view .LVU295
 924              	.LBB630:
 925              	.LBI630:
  62:../../DaisySP/Source/Synthesis/cso.h ****     {
 926              		.loc 13 62 17 view .LVU296
 927              	.LBB631:
  64:../../DaisySP/Source/Synthesis/cso.h ****     }
 928              		.loc 13 64 9 view .LVU297
  64:../../DaisySP/Source/Synthesis/cso.h ****     }
 929              		.loc 13 64 16 is_stmt 0 view .LVU298
 930 00be A260     		str	r2, [r4, #8]	@ float
 931              	.LVL33:
ARM GAS  C:\Users\ashgr\AppData\Local\Temp\ccMnbzlT.s 			page 33


  64:../../DaisySP/Source/Synthesis/cso.h ****     }
 932              		.loc 13 64 16 view .LVU299
 933              	.LBE631:
 934              	.LBE630:
 151:sego.cpp      ****     osc2.SetFeedback(feedback);
 935              		.loc 14 151 5 is_stmt 1 view .LVU300
 936              	.LBB632:
 937              	.LBI632:
  78:../../DaisySP/Source/Synthesis/cso.h ****     {
 938              		.loc 13 78 17 view .LVU301
 939              	.LBB633:
  80:../../DaisySP/Source/Synthesis/cso.h ****     }
 940              		.loc 13 80 9 view .LVU302
  80:../../DaisySP/Source/Synthesis/cso.h ****     }
 941              		.loc 13 80 19 is_stmt 0 view .LVU303
 942 00c0 2361     		str	r3, [r4, #16]	@ float
 943              	.LVL34:
  80:../../DaisySP/Source/Synthesis/cso.h ****     }
 944              		.loc 13 80 19 view .LVU304
 945              	.LBE633:
 946              	.LBE632:
 152:sego.cpp      ****     osc2.SetOffset(offset);
 947              		.loc 14 152 5 is_stmt 1 view .LVU305
 948              	.LBB634:
 949              	.LBI624:
  83:../../DaisySP/Source/Synthesis/cso.h ****     {
 950              		.loc 13 83 17 view .LVU306
 951              	.LBB626:
 952              		.loc 13 85 9 view .LVU307
 953              		.loc 13 85 17 is_stmt 0 view .LVU308
 954 00c2 6161     		str	r1, [r4, #20]	@ float
 955              	.LVL35:
 956              		.loc 13 85 17 view .LVU309
 957              	.LBE626:
 958              	.LBE634:
 153:sego.cpp      **** }
 959              		.loc 14 153 1 view .LVU310
 960 00c4 BDE8F88F 		pop	{r3, r4, r5, r6, r7, r8, r9, r10, fp, pc}
 961              	.L22:
 143:sego.cpp      ****         osc2.SetWidth(width + cv1); 
 962              		.loc 14 143 9 is_stmt 1 view .LVU311
 963              	.LVL36:
 964              	.LBB635:
 965              	.LBI635:
  71:../../DaisySP/Source/Synthesis/cso.h ****     {
 966              		.loc 13 71 17 view .LVU312
 967              	.LBB636:
  73:../../DaisySP/Source/Synthesis/cso.h ****     }
 968              		.loc 13 73 9 view .LVU313
  73:../../DaisySP/Source/Synthesis/cso.h ****     }
 969              		.loc 13 73 16 is_stmt 0 view .LVU314
 970 00c8 85ED030A 		vstr.32	s0, [r5, #12]
 971              	.LVL37:
  73:../../DaisySP/Source/Synthesis/cso.h ****     }
 972              		.loc 13 73 16 view .LVU315
 973              	.LBE636:
 974              	.LBE635:
ARM GAS  C:\Users\ashgr\AppData\Local\Temp\ccMnbzlT.s 			page 34


 144:sego.cpp      ****     }
 975              		.loc 14 144 9 is_stmt 1 view .LVU316
 976              	.LBB637:
 977              	.LBI637:
  71:../../DaisySP/Source/Synthesis/cso.h ****     {
 978              		.loc 13 71 17 view .LVU317
 979              	.LBB638:
  73:../../DaisySP/Source/Synthesis/cso.h ****     }
 980              		.loc 13 73 9 view .LVU318
  73:../../DaisySP/Source/Synthesis/cso.h ****     }
 981              		.loc 13 73 16 is_stmt 0 view .LVU319
 982 00cc 84ED030A 		vstr.32	s0, [r4, #12]
  74:../../DaisySP/Source/Synthesis/cso.h **** 
 983              		.loc 13 74 5 view .LVU320
 984 00d0 EFE7     		b	.L17
 985              	.LVL38:
 986              	.L21:
  74:../../DaisySP/Source/Synthesis/cso.h **** 
 987              		.loc 13 74 5 view .LVU321
 988              	.LBE638:
 989              	.LBE637:
  97:sego.cpp      ****             //Quantize: n/a (free-running VCO)
 990              		.loc 14 97 9 is_stmt 1 view .LVU322
  99:sego.cpp      ****             osc1.SetFreq(freq1);
 991              		.loc 14 99 13 view .LVU323
 992              	.LBB639:
 993              	.LBI639:
 994              		.file 15 "../../DaisySP/Source/Utility/dsp.h"
   1:../../DaisySP/Source/Utility/dsp.h **** /** Helpful defines, functions, and other utilities for use in/with daisysp modules.
   2:../../DaisySP/Source/Utility/dsp.h **** */
   3:../../DaisySP/Source/Utility/dsp.h **** #pragma once
   4:../../DaisySP/Source/Utility/dsp.h **** #ifndef DSY_CORE_DSP
   5:../../DaisySP/Source/Utility/dsp.h **** #define DSY_CORE_DSP
   6:../../DaisySP/Source/Utility/dsp.h **** #include <cassert>
   7:../../DaisySP/Source/Utility/dsp.h **** #include <cstdint>
   8:../../DaisySP/Source/Utility/dsp.h **** #include <random>
   9:../../DaisySP/Source/Utility/dsp.h **** #include <cmath>
  10:../../DaisySP/Source/Utility/dsp.h **** 
  11:../../DaisySP/Source/Utility/dsp.h **** /** PIs
  12:../../DaisySP/Source/Utility/dsp.h **** */
  13:../../DaisySP/Source/Utility/dsp.h **** #define PI_F 3.1415927410125732421875f
  14:../../DaisySP/Source/Utility/dsp.h **** #define TWOPI_F (2.0f * PI_F)
  15:../../DaisySP/Source/Utility/dsp.h **** #define HALFPI_F (PI_F * 0.5f)
  16:../../DaisySP/Source/Utility/dsp.h **** #define DSY_MIN(in, mn) (in < mn ? in : mn)
  17:../../DaisySP/Source/Utility/dsp.h **** #define DSY_MAX(in, mx) (in > mx ? in : mx)
  18:../../DaisySP/Source/Utility/dsp.h **** #define DSY_CLAMP(in, mn, mx) (DSY_MIN(DSY_MAX(in, mn), mx))
  19:../../DaisySP/Source/Utility/dsp.h **** #define DSY_COUNTOF(_arr) (sizeof(_arr) / sizeof(_arr[0]))
  20:../../DaisySP/Source/Utility/dsp.h **** 
  21:../../DaisySP/Source/Utility/dsp.h **** namespace daisysp
  22:../../DaisySP/Source/Utility/dsp.h **** {
  23:../../DaisySP/Source/Utility/dsp.h **** //Avoids division for random floats. e.g. rand() * kRandFrac
  24:../../DaisySP/Source/Utility/dsp.h **** static constexpr float kRandFrac = 1.f / (float)RAND_MAX;
  25:../../DaisySP/Source/Utility/dsp.h **** 
  26:../../DaisySP/Source/Utility/dsp.h **** //Convert from semitones to other units. e.g. 2 ^ (kOneTwelfth * x)
  27:../../DaisySP/Source/Utility/dsp.h **** static constexpr float kOneTwelfth = 1.f / 12.f;
  28:../../DaisySP/Source/Utility/dsp.h **** 
  29:../../DaisySP/Source/Utility/dsp.h **** /** efficient floating point min/max
ARM GAS  C:\Users\ashgr\AppData\Local\Temp\ccMnbzlT.s 			page 35


  30:../../DaisySP/Source/Utility/dsp.h **** c/o stephen mccaul
  31:../../DaisySP/Source/Utility/dsp.h **** */
  32:../../DaisySP/Source/Utility/dsp.h **** inline float fmax(float a, float b)
  33:../../DaisySP/Source/Utility/dsp.h **** {
  34:../../DaisySP/Source/Utility/dsp.h ****     float r;
  35:../../DaisySP/Source/Utility/dsp.h **** #ifdef __arm__
  36:../../DaisySP/Source/Utility/dsp.h ****     asm("vmaxnm.f32 %[d], %[n], %[m]" : [d] "=t"(r) : [n] "t"(a), [m] "t"(b) :);
  37:../../DaisySP/Source/Utility/dsp.h **** #else
  38:../../DaisySP/Source/Utility/dsp.h ****     r = (a > b) ? a : b;
  39:../../DaisySP/Source/Utility/dsp.h **** #endif // __arm__
  40:../../DaisySP/Source/Utility/dsp.h ****     return r;
  41:../../DaisySP/Source/Utility/dsp.h **** }
  42:../../DaisySP/Source/Utility/dsp.h **** 
  43:../../DaisySP/Source/Utility/dsp.h **** inline float fmin(float a, float b)
  44:../../DaisySP/Source/Utility/dsp.h **** {
  45:../../DaisySP/Source/Utility/dsp.h ****     float r;
  46:../../DaisySP/Source/Utility/dsp.h **** #ifdef __arm__
  47:../../DaisySP/Source/Utility/dsp.h ****     asm("vminnm.f32 %[d], %[n], %[m]" : [d] "=t"(r) : [n] "t"(a), [m] "t"(b) :);
  48:../../DaisySP/Source/Utility/dsp.h **** #else
  49:../../DaisySP/Source/Utility/dsp.h ****     r = (a < b) ? a : b;
  50:../../DaisySP/Source/Utility/dsp.h **** #endif // __arm__
  51:../../DaisySP/Source/Utility/dsp.h ****     return r;
  52:../../DaisySP/Source/Utility/dsp.h **** }
  53:../../DaisySP/Source/Utility/dsp.h **** 
  54:../../DaisySP/Source/Utility/dsp.h **** /** quick fp clamp
  55:../../DaisySP/Source/Utility/dsp.h **** */
  56:../../DaisySP/Source/Utility/dsp.h **** inline float fclamp(float in, float min, float max)
  57:../../DaisySP/Source/Utility/dsp.h **** {
  58:../../DaisySP/Source/Utility/dsp.h ****     return fmin(fmax(in, min), max);
  59:../../DaisySP/Source/Utility/dsp.h **** }
  60:../../DaisySP/Source/Utility/dsp.h **** 
  61:../../DaisySP/Source/Utility/dsp.h **** /** From Musicdsp.org "Fast power and root estimates for 32bit floats)
  62:../../DaisySP/Source/Utility/dsp.h **** Original code by Stefan Stenzel
  63:../../DaisySP/Source/Utility/dsp.h **** These are approximations
  64:../../DaisySP/Source/Utility/dsp.h **** */
  65:../../DaisySP/Source/Utility/dsp.h **** inline float fastpower(float f, int n)
  66:../../DaisySP/Source/Utility/dsp.h **** {
  67:../../DaisySP/Source/Utility/dsp.h ****     long *lp, l;
  68:../../DaisySP/Source/Utility/dsp.h ****     lp = (long *)(&f);
  69:../../DaisySP/Source/Utility/dsp.h ****     l  = *lp;
  70:../../DaisySP/Source/Utility/dsp.h ****     l -= 0x3F800000;
  71:../../DaisySP/Source/Utility/dsp.h ****     l <<= (n - 1);
  72:../../DaisySP/Source/Utility/dsp.h ****     l += 0x3F800000;
  73:../../DaisySP/Source/Utility/dsp.h ****     *lp = l;
  74:../../DaisySP/Source/Utility/dsp.h ****     return f;
  75:../../DaisySP/Source/Utility/dsp.h **** }
  76:../../DaisySP/Source/Utility/dsp.h **** 
  77:../../DaisySP/Source/Utility/dsp.h **** inline float fastroot(float f, int n)
  78:../../DaisySP/Source/Utility/dsp.h **** {
  79:../../DaisySP/Source/Utility/dsp.h ****     long *lp, l;
  80:../../DaisySP/Source/Utility/dsp.h ****     lp = (long *)(&f);
  81:../../DaisySP/Source/Utility/dsp.h ****     l  = *lp;
  82:../../DaisySP/Source/Utility/dsp.h ****     l -= 0x3F800000;
  83:../../DaisySP/Source/Utility/dsp.h ****     l >>= (n = 1);
  84:../../DaisySP/Source/Utility/dsp.h ****     l += 0x3F800000;
  85:../../DaisySP/Source/Utility/dsp.h ****     *lp = l;
  86:../../DaisySP/Source/Utility/dsp.h ****     return f;
ARM GAS  C:\Users\ashgr\AppData\Local\Temp\ccMnbzlT.s 			page 36


  87:../../DaisySP/Source/Utility/dsp.h **** }
  88:../../DaisySP/Source/Utility/dsp.h **** 
  89:../../DaisySP/Source/Utility/dsp.h **** /** From http://openaudio.blogspot.com/2017/02/faster-log10-and-pow.html
  90:../../DaisySP/Source/Utility/dsp.h **** No approximation, pow10f(x) gives a 90% speed increase over powf(10.f, x)
  91:../../DaisySP/Source/Utility/dsp.h **** */
  92:../../DaisySP/Source/Utility/dsp.h **** inline float pow10f(float f)
  93:../../DaisySP/Source/Utility/dsp.h **** {
  94:../../DaisySP/Source/Utility/dsp.h ****     return expf(2.302585092994046f * f);
  95:../../DaisySP/Source/Utility/dsp.h **** }
  96:../../DaisySP/Source/Utility/dsp.h **** 
  97:../../DaisySP/Source/Utility/dsp.h **** /* Original code for fastlog2f by Dr. Paul Beckmann from the ARM community forum, adapted from the 
  98:../../DaisySP/Source/Utility/dsp.h **** About 25% performance increase over std::log10f
  99:../../DaisySP/Source/Utility/dsp.h **** */
 100:../../DaisySP/Source/Utility/dsp.h **** inline float fastlog2f(float f)
 101:../../DaisySP/Source/Utility/dsp.h **** {
 102:../../DaisySP/Source/Utility/dsp.h ****     float frac;
 103:../../DaisySP/Source/Utility/dsp.h ****     int   exp;
 104:../../DaisySP/Source/Utility/dsp.h ****     frac = frexpf(fabsf(f), &exp);
 105:../../DaisySP/Source/Utility/dsp.h ****     f    = 1.23149591368684f;
 106:../../DaisySP/Source/Utility/dsp.h ****     f *= frac;
 107:../../DaisySP/Source/Utility/dsp.h ****     f += -4.11852516267426f;
 108:../../DaisySP/Source/Utility/dsp.h ****     f *= frac;
 109:../../DaisySP/Source/Utility/dsp.h ****     f += 6.02197014179219f;
 110:../../DaisySP/Source/Utility/dsp.h ****     f *= frac;
 111:../../DaisySP/Source/Utility/dsp.h ****     f += -3.13396450166353f;
 112:../../DaisySP/Source/Utility/dsp.h ****     f += exp;
 113:../../DaisySP/Source/Utility/dsp.h ****     return (f);
 114:../../DaisySP/Source/Utility/dsp.h **** }
 115:../../DaisySP/Source/Utility/dsp.h **** 
 116:../../DaisySP/Source/Utility/dsp.h **** inline float fastlog10f(float f)
 117:../../DaisySP/Source/Utility/dsp.h **** {
 118:../../DaisySP/Source/Utility/dsp.h ****     return fastlog2f(f) * 0.3010299956639812f;
 119:../../DaisySP/Source/Utility/dsp.h **** }
 120:../../DaisySP/Source/Utility/dsp.h **** 
 121:../../DaisySP/Source/Utility/dsp.h **** /** Midi to frequency helper
 122:../../DaisySP/Source/Utility/dsp.h **** */
 123:../../DaisySP/Source/Utility/dsp.h **** inline float mtof(float m)
 995              		.loc 15 123 14 view .LVU324
 996              	.LBB640:
 124:../../DaisySP/Source/Utility/dsp.h **** {
 125:../../DaisySP/Source/Utility/dsp.h ****     return powf(2, (m - 69.0f) / 12.0f) * 440.0f;
 997              		.loc 15 125 5 view .LVU325
 998              		.loc 15 125 23 is_stmt 0 view .LVU326
 999 00d2 D4ED007A 		vldr.32	s15, [r4]
 1000              		.loc 15 125 16 view .LVU327
 1001 00d6 F2EE080A 		vmov.f32	s1, #1.2e+1
 1002              		.loc 15 125 23 view .LVU328
 1003 00da 9FED307A 		vldr.32	s14, .L25+60
 1004              		.loc 15 125 16 view .LVU329
 1005 00de B0EE000A 		vmov.f32	s0, #2.0e+0
 1006              		.loc 15 125 23 view .LVU330
 1007 00e2 77EEC77A 		vsub.f32	s15, s15, s14
 1008              		.loc 15 125 16 view .LVU331
 1009 00e6 C7EEA00A 		vdiv.f32	s1, s15, s1
 1010 00ea FFF7FEFF 		bl	powf
 1011              	.LVL39:
 1012              		.loc 15 125 43 view .LVU332
ARM GAS  C:\Users\ashgr\AppData\Local\Temp\ccMnbzlT.s 			page 37


 1013 00ee DFED2C7A 		vldr.32	s15, .L25+64
 1014              	.L24:
 1015              		.loc 15 125 43 view .LVU333
 1016              	.LBE640:
 1017              	.LBE639:
 1018              	.LBB641:
 1019              	.LBB642:
  56:../../DaisySP/Source/Synthesis/cso.h ****         phase_inc_ = CalcPhaseInc(f);
 1020              		.loc 13 56 20 view .LVU334
 1021 00f2 284D     		ldr	r5, .L25+52
  57:../../DaisySP/Source/Synthesis/cso.h ****     }
 1022              		.loc 13 57 34 view .LVU335
 1023 00f4 2846     		mov	r0, r5
 1024              	.LBE642:
 1025              	.LBE641:
 111:sego.cpp      ****             osc1.SetFreq(freq1);
 1026              		.loc 14 111 33 view .LVU336
 1027 00f6 20EE270A 		vmul.f32	s0, s0, s15
 111:sego.cpp      ****             osc1.SetFreq(freq1);
 1028              		.loc 14 111 19 view .LVU337
 1029 00fa 84ED000A 		vstr.32	s0, [r4]
 112:sego.cpp      ****             osc2.SetFreq(freq1 * freq2);
 1030              		.loc 14 112 13 is_stmt 1 view .LVU338
 1031              	.LVL40:
 1032              	.LBB645:
 1033              	.LBI641:
  54:../../DaisySP/Source/Synthesis/cso.h ****     {
 1034              		.loc 13 54 17 view .LVU339
 1035              	.LBB643:
  56:../../DaisySP/Source/Synthesis/cso.h ****         phase_inc_ = CalcPhaseInc(f);
 1036              		.loc 13 56 9 view .LVU340
  56:../../DaisySP/Source/Synthesis/cso.h ****         phase_inc_ = CalcPhaseInc(f);
 1037              		.loc 13 56 20 is_stmt 0 view .LVU341
 1038 00fe 85ED010A 		vstr.32	s0, [r5, #4]
  57:../../DaisySP/Source/Synthesis/cso.h ****     }
 1039              		.loc 13 57 9 is_stmt 1 view .LVU342
  57:../../DaisySP/Source/Synthesis/cso.h ****     }
 1040              		.loc 13 57 34 is_stmt 0 view .LVU343
 1041 0102 FFF7FEFF 		bl	_ZN7daisysp3Cso12CalcPhaseIncEf
 1042              	.LVL41:
  57:../../DaisySP/Source/Synthesis/cso.h ****     }
 1043              		.loc 13 57 34 view .LVU344
 1044              	.LBE643:
 1045              	.LBE645:
 113:sego.cpp      ****             break;
 1046              		.loc 14 113 25 view .LVU345
 1047 0106 D4ED007A 		vldr.32	s15, [r4]
 1048 010a 9AED007A 		vldr.32	s14, [r10]
 1049              	.LBB646:
 1050              	.LBB647:
  56:../../DaisySP/Source/Synthesis/cso.h ****         phase_inc_ = CalcPhaseInc(f);
 1051              		.loc 13 56 20 view .LVU346
 1052 010e 224C     		ldr	r4, .L25+56
 1053              	.LBE647:
 1054              	.LBE646:
 1055              	.LBB650:
 1056              	.LBB644:
ARM GAS  C:\Users\ashgr\AppData\Local\Temp\ccMnbzlT.s 			page 38


  57:../../DaisySP/Source/Synthesis/cso.h ****     }
 1057              		.loc 13 57 20 view .LVU347
 1058 0110 85ED090A 		vstr.32	s0, [r5, #36]
 1059              	.LVL42:
  57:../../DaisySP/Source/Synthesis/cso.h ****     }
 1060              		.loc 13 57 20 view .LVU348
 1061              	.LBE644:
 1062              	.LBE650:
 113:sego.cpp      ****             break;
 1063              		.loc 14 113 13 is_stmt 1 view .LVU349
 113:sego.cpp      ****             break;
 1064              		.loc 14 113 25 is_stmt 0 view .LVU350
 1065 0114 27EE870A 		vmul.f32	s0, s15, s14
 1066              	.LVL43:
 1067              	.LBB651:
 1068              	.LBI646:
  54:../../DaisySP/Source/Synthesis/cso.h ****     {
 1069              		.loc 13 54 17 is_stmt 1 view .LVU351
 1070              	.LBB648:
  56:../../DaisySP/Source/Synthesis/cso.h ****         phase_inc_ = CalcPhaseInc(f);
 1071              		.loc 13 56 9 view .LVU352
  57:../../DaisySP/Source/Synthesis/cso.h ****     }
 1072              		.loc 13 57 34 is_stmt 0 view .LVU353
 1073 0118 2046     		mov	r0, r4
  56:../../DaisySP/Source/Synthesis/cso.h ****         phase_inc_ = CalcPhaseInc(f);
 1074              		.loc 13 56 20 view .LVU354
 1075 011a 84ED010A 		vstr.32	s0, [r4, #4]
  57:../../DaisySP/Source/Synthesis/cso.h ****     }
 1076              		.loc 13 57 9 is_stmt 1 view .LVU355
  57:../../DaisySP/Source/Synthesis/cso.h ****     }
 1077              		.loc 13 57 34 is_stmt 0 view .LVU356
 1078 011e FFF7FEFF 		bl	_ZN7daisysp3Cso12CalcPhaseIncEf
 1079              	.LVL44:
  57:../../DaisySP/Source/Synthesis/cso.h ****     }
 1080              		.loc 13 57 34 view .LVU357
 1081              	.LBE648:
 1082              	.LBE651:
 131:sego.cpp      ****     {
 1083              		.loc 14 131 14 view .LVU358
 1084 0122 DBED007A 		vldr.32	s15, [fp]
 1085              	.LBB652:
 1086              	.LBB649:
  57:../../DaisySP/Source/Synthesis/cso.h ****     }
 1087              		.loc 13 57 20 view .LVU359
 1088 0126 84ED090A 		vstr.32	s0, [r4, #36]
  58:../../DaisySP/Source/Synthesis/cso.h **** 
 1089              		.loc 13 58 5 view .LVU360
 1090 012a AAE7     		b	.L12
 1091              	.LVL45:
 1092              	.L11:
  58:../../DaisySP/Source/Synthesis/cso.h **** 
 1093              		.loc 13 58 5 view .LVU361
 1094              	.LBE649:
 1095              	.LBE652:
 109:sego.cpp      ****             //Quantize: Mult/div of A440 (?)
 1096              		.loc 14 109 9 is_stmt 1 view .LVU362
 111:sego.cpp      ****             osc1.SetFreq(freq1);
ARM GAS  C:\Users\ashgr\AppData\Local\Temp\ccMnbzlT.s 			page 39


 1097              		.loc 14 111 13 view .LVU363
 1098              		.loc 15 125 5 view .LVU364
 111:sego.cpp      ****             osc1.SetFreq(freq1);
 1099              		.loc 14 111 41 is_stmt 0 view .LVU365
 1100 012c 95ED000A 		vldr.32	s0, [r5]
 111:sego.cpp      ****             osc1.SetFreq(freq1);
 1101              		.loc 14 111 33 view .LVU366
 1102 0130 DFED1C7A 		vldr.32	s15, .L25+68
 111:sego.cpp      ****             osc1.SetFreq(freq1);
 1103              		.loc 14 111 41 view .LVU367
 1104 0134 B8FE400A 		vrinta.f32	s0, s0
 1105 0138 DBE7     		b	.L24
 1106              	.L10:
 103:sego.cpp      ****             //Quantize: 12TET
 1107              		.loc 14 103 9 is_stmt 1 view .LVU368
 105:sego.cpp      ****             osc1.SetFreq(freq1);
 1108              		.loc 14 105 13 view .LVU369
 105:sego.cpp      ****             osc1.SetFreq(freq1);
 1109              		.loc 14 105 25 is_stmt 0 view .LVU370
 1110 013a D4ED007A 		vldr.32	s15, [r4]
 1111              	.LBB653:
 1112              	.LBB654:
 1113              		.loc 15 125 16 view .LVU371
 1114 013e F2EE080A 		vmov.f32	s1, #1.2e+1
 1115              		.loc 15 125 23 view .LVU372
 1116 0142 9FED167A 		vldr.32	s14, .L25+60
 1117              		.loc 15 125 16 view .LVU373
 1118 0146 B0EE000A 		vmov.f32	s0, #2.0e+0
 1119              	.LBE654:
 1120              	.LBE653:
 105:sego.cpp      ****             osc1.SetFreq(freq1);
 1121              		.loc 14 105 25 view .LVU374
 1122 014a F8FE677A 		vrinta.f32	s15, s15
 1123              	.LVL46:
 1124              	.LBB656:
 1125              	.LBI653:
 123:../../DaisySP/Source/Utility/dsp.h **** {
 1126              		.loc 15 123 14 is_stmt 1 view .LVU375
 1127              	.LBB655:
 1128              		.loc 15 125 5 view .LVU376
 1129              		.loc 15 125 23 is_stmt 0 view .LVU377
 1130 014e 77EEC77A 		vsub.f32	s15, s15, s14
 1131              	.LVL47:
 1132              		.loc 15 125 16 view .LVU378
 1133 0152 C7EEA00A 		vdiv.f32	s1, s15, s1
 1134 0156 FFF7FEFF 		bl	powf
 1135              	.LVL48:
 1136              		.loc 15 125 43 view .LVU379
 1137 015a DFED117A 		vldr.32	s15, .L25+64
 1138 015e C8E7     		b	.L24
 1139              	.L26:
 1140              		.align	2
 1141              	.L25:
 1142 0160 00000000 		.word	.LANCHOR0
 1143 0164 00000000 		.word	.LANCHOR14
 1144 0168 00000000 		.word	.LANCHOR15
 1145 016c 00000000 		.word	.LANCHOR1
ARM GAS  C:\Users\ashgr\AppData\Local\Temp\ccMnbzlT.s 			page 40


 1146 0170 00000000 		.word	.LANCHOR2
 1147 0174 00000000 		.word	.LANCHOR3
 1148 0178 00000000 		.word	.LANCHOR18
 1149 017c 00000000 		.word	.LANCHOR4
 1150 0180 00000000 		.word	.LANCHOR5
 1151 0184 00000000 		.word	.LANCHOR20
 1152 0188 00000000 		.word	.LANCHOR6
 1153 018c 00000000 		.word	.LANCHOR7
 1154 0190 00000000 		.word	.LANCHOR12
 1155 0194 00000000 		.word	.LANCHOR8
 1156 0198 00000000 		.word	.LANCHOR9
 1157 019c 00008A42 		.word	1116340224
 1158 01a0 0000DC43 		.word	1138491392
 1159 01a4 12D00242 		.word	1107480594
 1160 01a8 00000000 		.word	.LANCHOR16
 1161 01ac 00000000 		.word	.LANCHOR17
 1162 01b0 00000000 		.word	.LANCHOR19
 1163 01b4 00000000 		.word	.LANCHOR21
 1164              	.LBE655:
 1165              	.LBE656:
 1166              		.cfi_endproc
 1167              	.LFE4324:
 1169              		.section	.text._Z14UpdateSwitchesv,"ax",%progbits
 1170              		.align	1
 1171              		.p2align 2,,3
 1172              		.global	_Z14UpdateSwitchesv
 1173              		.syntax unified
 1174              		.thumb
 1175              		.thumb_func
 1176              		.fpu fpv5-d16
 1178              	_Z14UpdateSwitchesv:
 1179              	.LFB4325:
 154:sego.cpp      **** 
 155:sego.cpp      **** void UpdateSwitches()
 156:sego.cpp      **** {
 1180              		.loc 14 156 1 is_stmt 1 view -0
 1181              		.cfi_startproc
 1182              		@ args = 0, pretend = 0, frame = 0
 1183              		@ frame_needed = 0, uses_anonymous_args = 0
 157:sego.cpp      ****     if(hw.sw1.RisingEdge())
 1184              		.loc 14 157 5 view .LVU381
 1185              	.LVL49:
 1186              	.LBB657:
 1187              	.LBI657:
  43:../../libdaisy/src/hid/switch.h **** 
  44:../../libdaisy/src/hid/switch.h ****     /** 
  45:../../libdaisy/src/hid/switch.h ****     Initializes the switch object with a given port/pin combo.
  46:../../libdaisy/src/hid/switch.h ****     \param pin port/pin object to tell the switch which hardware pin to use.
  47:../../libdaisy/src/hid/switch.h ****     \param update_rate Does nothing. Backwards compatibility until next breaking update.
  48:../../libdaisy/src/hid/switch.h ****     \param t switch type -- Default: TYPE_MOMENTARY
  49:../../libdaisy/src/hid/switch.h ****     \param pol switch polarity -- Default: POLARITY_INVERTED
  50:../../libdaisy/src/hid/switch.h ****     \param pu switch pull up/down -- Default: PULL_UP
  51:../../libdaisy/src/hid/switch.h ****     */
  52:../../libdaisy/src/hid/switch.h ****     void
  53:../../libdaisy/src/hid/switch.h ****     Init(dsy_gpio_pin pin, float update_rate, Type t, Polarity pol, Pull pu);
  54:../../libdaisy/src/hid/switch.h **** 
  55:../../libdaisy/src/hid/switch.h ****     /**
ARM GAS  C:\Users\ashgr\AppData\Local\Temp\ccMnbzlT.s 			page 41


  56:../../libdaisy/src/hid/switch.h ****        Simplified Init.
  57:../../libdaisy/src/hid/switch.h ****        \param pin port/pin object to tell the switch which hardware pin to use.
  58:../../libdaisy/src/hid/switch.h ****        \param update_rate Left for backwards compatibility until next breaking change.
  59:../../libdaisy/src/hid/switch.h ****     */
  60:../../libdaisy/src/hid/switch.h ****     void Init(dsy_gpio_pin pin, float update_rate = 0.f);
  61:../../libdaisy/src/hid/switch.h **** 
  62:../../libdaisy/src/hid/switch.h ****     /** 
  63:../../libdaisy/src/hid/switch.h ****     Called at update_rate to debounce and handle timing for the switch.
  64:../../libdaisy/src/hid/switch.h ****     In order for events not to be missed, its important that the Edge/Pressed checks
  65:../../libdaisy/src/hid/switch.h ****     be made at the same rate as the debounce function is being called.
  66:../../libdaisy/src/hid/switch.h ****     */
  67:../../libdaisy/src/hid/switch.h ****     void Debounce();
  68:../../libdaisy/src/hid/switch.h **** 
  69:../../libdaisy/src/hid/switch.h ****     /** \return true if a button was just pressed. */
  70:../../libdaisy/src/hid/switch.h ****     inline bool RisingEdge() const { return state_ == 0x7f; }
 1188              		.loc 7 70 17 view .LVU382
 1189              	.LBB658:
 1190              		.loc 7 70 38 view .LVU383
 1191              		.loc 7 70 45 is_stmt 0 view .LVU384
 1192 0000 2149     		ldr	r1, .L37
 1193              	.LBE658:
 1194              	.LBE657:
 158:sego.cpp      ****         range += 1;
 1195              		.loc 14 158 15 view .LVU385
 1196 0002 2248     		ldr	r0, .L37+4
 156:sego.cpp      ****     if(hw.sw1.RisingEdge())
 1197              		.loc 14 156 1 view .LVU386
 1198 0004 00B5     		push	{lr}
 1199              		.cfi_def_cfa_offset 4
 1200              		.cfi_offset 14, -4
 157:sego.cpp      ****         range += 1;
 1201              		.loc 14 157 5 view .LVU387
 1202 0006 91F8F131 		ldrb	r3, [r1, #497]	@ zero_extendqisi2
 1203              		.loc 14 158 15 view .LVU388
 1204 000a 0268     		ldr	r2, [r0]
 157:sego.cpp      ****         range += 1;
 1205              		.loc 14 157 5 view .LVU389
 1206 000c 7F2B     		cmp	r3, #127
 1207              		.loc 14 158 9 is_stmt 1 view .LVU390
 159:sego.cpp      ****     range = range % 3;
 1208              		.loc 14 159 5 view .LVU391
 1209              		.loc 14 159 19 is_stmt 0 view .LVU392
 1210 000e 204B     		ldr	r3, .L37+8
 160:sego.cpp      **** 
 161:sego.cpp      ****     if(hw.sw2.RisingEdge())
 1211              		.loc 14 161 5 view .LVU393
 1212 0010 91F8FDC1 		ldrb	ip, [r1, #509]	@ zero_extendqisi2
 158:sego.cpp      ****     range = range % 3;
 1213              		.loc 14 158 15 view .LVU394
 1214 0014 08BF     		it	eq
 1215 0016 0132     		addeq	r2, r2, #1
 1216              		.loc 14 161 5 view .LVU395
 1217 0018 BCF17F0F 		cmp	ip, #127
 159:sego.cpp      ****     range = range % 3;
 1218              		.loc 14 159 19 view .LVU396
 1219 001c 83FB02E3 		smull	lr, r3, r3, r2
 1220 0020 A3EBE273 		sub	r3, r3, r2, asr #31
ARM GAS  C:\Users\ashgr\AppData\Local\Temp\ccMnbzlT.s 			page 42


 1221 0024 03EB4303 		add	r3, r3, r3, lsl #1
 1222 0028 A2EB0303 		sub	r3, r2, r3
 159:sego.cpp      ****     range = range % 3;
 1223              		.loc 14 159 11 view .LVU397
 1224 002c 0360     		str	r3, [r0]
 1225              		.loc 14 161 5 is_stmt 1 view .LVU398
 1226              	.LVL50:
 1227              	.LBB659:
 1228              	.LBI659:
 1229              		.loc 7 70 17 view .LVU399
 1230              	.LBB660:
 1231              		.loc 7 70 38 view .LVU400
 1232              		.loc 7 70 38 is_stmt 0 view .LVU401
 1233              	.LBE660:
 1234              	.LBE659:
 162:sego.cpp      ****         mode += 1;
 1235              		.loc 14 162 9 is_stmt 1 view .LVU402
 1236              		.loc 14 162 14 is_stmt 0 view .LVU403
 1237 002e 1948     		ldr	r0, .L37+12
 1238 0030 0368     		ldr	r3, [r0]
 1239 0032 08BF     		it	eq
 1240 0034 0133     		addeq	r3, r3, #1
 163:sego.cpp      ****     mode = mode % 4;
 1241              		.loc 14 163 5 is_stmt 1 view .LVU404
 1242              		.loc 14 163 17 is_stmt 0 view .LVU405
 1243 0036 5A42     		rsbs	r2, r3, #0
 1244 0038 03F00303 		and	r3, r3, #3
 1245 003c 02F00302 		and	r2, r2, #3
 1246 0040 58BF     		it	pl
 1247 0042 5342     		rsbpl	r3, r2, #0
 164:sego.cpp      **** 
 165:sego.cpp      ****     if(hw.sw3.RisingEdge())
 1248              		.loc 14 165 5 view .LVU406
 1249 0044 91F80922 		ldrb	r2, [r1, #521]	@ zero_extendqisi2
 166:sego.cpp      ****         scale += 1;
 167:sego.cpp      ****     scale = scale % 3;
 168:sego.cpp      **** 
 169:sego.cpp      ****     if(hw.sw4.RisingEdge())
 1250              		.loc 14 169 5 view .LVU407
 1251 0048 91F81512 		ldrb	r1, [r1, #533]	@ zero_extendqisi2
 163:sego.cpp      **** 
 1252              		.loc 14 163 10 view .LVU408
 1253 004c 0360     		str	r3, [r0]
 165:sego.cpp      ****         scale += 1;
 1254              		.loc 14 165 5 is_stmt 1 view .LVU409
 1255              	.LVL51:
 1256              	.LBB661:
 1257              	.LBI661:
 1258              		.loc 7 70 17 view .LVU410
 1259              	.LBB662:
 1260              		.loc 7 70 38 view .LVU411
 1261              		.loc 7 70 38 is_stmt 0 view .LVU412
 1262              	.LBE662:
 1263              	.LBE661:
 165:sego.cpp      ****         scale += 1;
 1264              		.loc 14 165 5 view .LVU413
 1265 004e 7F2A     		cmp	r2, #127
ARM GAS  C:\Users\ashgr\AppData\Local\Temp\ccMnbzlT.s 			page 43


 166:sego.cpp      ****         scale += 1;
 1266              		.loc 14 166 15 view .LVU414
 1267 0050 1148     		ldr	r0, .L37+16
 167:sego.cpp      **** 
 1268              		.loc 14 167 19 view .LVU415
 1269 0052 0F4B     		ldr	r3, .L37+8
 166:sego.cpp      ****     scale = scale % 3;
 1270              		.loc 14 166 15 view .LVU416
 1271 0054 0268     		ldr	r2, [r0]
 166:sego.cpp      ****     scale = scale % 3;
 1272              		.loc 14 166 9 is_stmt 1 view .LVU417
 167:sego.cpp      **** 
 1273              		.loc 14 167 5 view .LVU418
 166:sego.cpp      ****     scale = scale % 3;
 1274              		.loc 14 166 15 is_stmt 0 view .LVU419
 1275 0056 08BF     		it	eq
 1276 0058 0132     		addeq	r2, r2, #1
 1277              		.loc 14 169 5 view .LVU420
 1278 005a 7F29     		cmp	r1, #127
 167:sego.cpp      **** 
 1279              		.loc 14 167 19 view .LVU421
 1280 005c 83FB02C3 		smull	ip, r3, r3, r2
 1281 0060 A3EBE273 		sub	r3, r3, r2, asr #31
 1282 0064 03EB4303 		add	r3, r3, r3, lsl #1
 1283 0068 A2EB0303 		sub	r3, r2, r3
 170:sego.cpp      ****         shift += 1;
 1284              		.loc 14 170 15 view .LVU422
 1285 006c 0B4A     		ldr	r2, .L37+20
 167:sego.cpp      **** 
 1286              		.loc 14 167 11 view .LVU423
 1287 006e 0360     		str	r3, [r0]
 169:sego.cpp      ****         shift += 1;
 1288              		.loc 14 169 5 is_stmt 1 view .LVU424
 1289              	.LVL52:
 1290              	.LBB663:
 1291              	.LBI663:
 1292              		.loc 7 70 17 view .LVU425
 1293              	.LBB664:
 1294              		.loc 7 70 38 view .LVU426
 1295              		.loc 7 70 38 is_stmt 0 view .LVU427
 1296              	.LBE664:
 1297              	.LBE663:
 1298              		.loc 14 170 9 is_stmt 1 view .LVU428
 1299              		.loc 14 170 15 is_stmt 0 view .LVU429
 1300 0070 1368     		ldr	r3, [r2]
 1301 0072 08BF     		it	eq
 1302 0074 0133     		addeq	r3, r3, #1
 171:sego.cpp      ****     shift = shift % 2;
 1303              		.loc 14 171 5 is_stmt 1 view .LVU430
 1304              		.loc 14 171 19 is_stmt 0 view .LVU431
 1305 0076 002B     		cmp	r3, #0
 1306 0078 03F00103 		and	r3, r3, #1
 1307 007c B8BF     		it	lt
 1308 007e 5B42     		rsblt	r3, r3, #0
 1309              		.loc 14 171 11 view .LVU432
 1310 0080 1360     		str	r3, [r2]
 172:sego.cpp      **** 
ARM GAS  C:\Users\ashgr\AppData\Local\Temp\ccMnbzlT.s 			page 44


 173:sego.cpp      **** }
 1311              		.loc 14 173 1 view .LVU433
 1312 0082 5DF804FB 		ldr	pc, [sp], #4
 1313              	.L38:
 1314 0086 00BF     		.align	2
 1315              	.L37:
 1316 0088 00000000 		.word	hw
 1317 008c 00000000 		.word	.LANCHOR10
 1318 0090 56555555 		.word	1431655766
 1319 0094 00000000 		.word	.LANCHOR11
 1320 0098 00000000 		.word	.LANCHOR12
 1321 009c 00000000 		.word	.LANCHOR13
 1322              		.cfi_endproc
 1323              	.LFE4325:
 1325              		.section	.text._ZL13AudioCallbackPKfPfj,"ax",%progbits
 1326              		.align	1
 1327              		.p2align 2,,3
 1328              		.syntax unified
 1329              		.thumb
 1330              		.thumb_func
 1331              		.fpu fpv5-d16
 1333              	_ZL13AudioCallbackPKfPfj:
 1334              	.LVL53:
 1335              	.LFB4322:
  21:sego.cpp      ****     Controls();
 1336              		.loc 14 21 1 is_stmt 1 view -0
 1337              		.cfi_startproc
 1338              		@ args = 0, pretend = 0, frame = 0
 1339              		@ frame_needed = 0, uses_anonymous_args = 0
  22:sego.cpp      **** 
 1340              		.loc 14 22 5 view .LVU435
 1341              	.LBB668:
 1342              	.LBI668:
 174:sego.cpp      **** 
 175:sego.cpp      **** void UpdateLeds() {}
 176:sego.cpp      **** void Controls()
 1343              		.loc 14 176 6 view .LVU436
 1344              	.LBB669:
 177:sego.cpp      **** 
 178:sego.cpp      **** {
 179:sego.cpp      ****     hw.ProcessAnalogControls();
 1345              		.loc 14 179 5 view .LVU437
 1346              	.LBE669:
 1347              	.LBE668:
  21:sego.cpp      ****     Controls();
 1348              		.loc 14 21 1 is_stmt 0 view .LVU438
 1349 0000 2DE9F041 		push	{r4, r5, r6, r7, r8, lr}
 1350              		.cfi_def_cfa_offset 24
 1351              		.cfi_offset 4, -24
 1352              		.cfi_offset 5, -20
 1353              		.cfi_offset 6, -16
 1354              		.cfi_offset 7, -12
 1355              		.cfi_offset 8, -8
 1356              		.cfi_offset 14, -4
 1357              	.LBB672:
 1358              	.LBB670:
 1359              		.loc 14 179 29 view .LVU439
ARM GAS  C:\Users\ashgr\AppData\Local\Temp\ccMnbzlT.s 			page 45


 1360 0004 1548     		ldr	r0, .L47
 1361              	.LVL54:
 1362              		.loc 14 179 29 view .LVU440
 1363              	.LBE670:
 1364              	.LBE672:
  21:sego.cpp      ****     Controls();
 1365              		.loc 14 21 1 view .LVU441
 1366 0006 1546     		mov	r5, r2
 1367 0008 0C46     		mov	r4, r1
 1368              	.LBB673:
 1369              	.LBB671:
 1370              		.loc 14 179 29 view .LVU442
 1371 000a FFF7FEFF 		bl	_ZN5daisy11CsoHardware21ProcessAnalogControlsEv
 1372              	.LVL55:
 180:sego.cpp      ****     hw.ProcessDigitalControls();
 1373              		.loc 14 180 5 is_stmt 1 view .LVU443
 1374              		.loc 14 180 30 is_stmt 0 view .LVU444
 1375 000e 1348     		ldr	r0, .L47
 1376 0010 FFF7FEFF 		bl	_ZN5daisy11CsoHardware22ProcessDigitalControlsEv
 1377              	.LVL56:
 181:sego.cpp      **** 
 182:sego.cpp      ****     UpdateKnobs();
 1378              		.loc 14 182 5 is_stmt 1 view .LVU445
 1379              		.loc 14 182 16 is_stmt 0 view .LVU446
 1380 0014 FFF7FEFF 		bl	_Z11UpdateKnobsv
 1381              	.LVL57:
 183:sego.cpp      ****     UpdateSwitches();
 1382              		.loc 14 183 5 is_stmt 1 view .LVU447
 1383              		.loc 14 183 19 is_stmt 0 view .LVU448
 1384 0018 FFF7FEFF 		bl	_Z14UpdateSwitchesv
 1385              	.LVL58:
 184:sego.cpp      ****     UpdateLeds();
 1386              		.loc 14 184 5 is_stmt 1 view .LVU449
 1387              		.loc 14 184 5 is_stmt 0 view .LVU450
 1388              	.LBE671:
 1389              	.LBE673:
 1390              	.LBB674:
  24:sego.cpp      ****     {
 1391              		.loc 14 24 25 is_stmt 1 view .LVU451
 1392 001c DDB1     		cbz	r5, .L39
 1393 001e 05F1FF38 		add	r8, r5, #-1
 1394 0022 0F4F     		ldr	r7, .L47+4
 1395 0024 0025     		movs	r5, #0
 1396              	.LVL59:
  24:sego.cpp      ****     {
 1397              		.loc 14 24 25 is_stmt 0 view .LVU452
 1398 0026 0F4E     		ldr	r6, .L47+8
 1399 0028 4FEA5808 		lsr	r8, r8, #1
 1400              	.LVL60:
 1401              	.L41:
  26:sego.cpp      ****         sig2      = osc2.Process();
 1402              		.loc 14 26 9 is_stmt 1 discriminator 2 view .LVU453
  26:sego.cpp      ****         sig2      = osc2.Process();
 1403              		.loc 14 26 33 is_stmt 0 discriminator 2 view .LVU454
 1404 002c 0E48     		ldr	r0, .L47+12
  24:sego.cpp      ****     {
 1405              		.loc 14 24 25 discriminator 2 view .LVU455
ARM GAS  C:\Users\ashgr\AppData\Local\Temp\ccMnbzlT.s 			page 46


 1406 002e 0834     		adds	r4, r4, #8
  26:sego.cpp      ****         sig2      = osc2.Process();
 1407              		.loc 14 26 33 discriminator 2 view .LVU456
 1408 0030 FFF7FEFF 		bl	_ZN7daisysp3Cso7ProcessEv
 1409              	.LVL61:
  27:sego.cpp      **** 
 1410              		.loc 14 27 33 discriminator 2 view .LVU457
 1411 0034 0D48     		ldr	r0, .L47+16
  26:sego.cpp      ****         sig2      = osc2.Process();
 1412              		.loc 14 26 19 discriminator 2 view .LVU458
 1413 0036 87ED000A 		vstr.32	s0, [r7]
  27:sego.cpp      **** 
 1414              		.loc 14 27 9 is_stmt 1 discriminator 2 view .LVU459
  27:sego.cpp      **** 
 1415              		.loc 14 27 33 is_stmt 0 discriminator 2 view .LVU460
 1416 003a FFF7FEFF 		bl	_ZN7daisysp3Cso7ProcessEv
 1417              	.LVL62:
  29:sego.cpp      ****         out[i + 1] = sig2;
 1418              		.loc 14 29 20 discriminator 2 view .LVU461
 1419 003e 3A68     		ldr	r2, [r7]	@ float
  24:sego.cpp      ****     {
 1420              		.loc 14 24 25 discriminator 2 view .LVU462
 1421 0040 A845     		cmp	r8, r5
  27:sego.cpp      **** 
 1422              		.loc 14 27 19 discriminator 2 view .LVU463
 1423 0042 86ED000A 		vstr.32	s0, [r6]
  29:sego.cpp      ****         out[i + 1] = sig2;
 1424              		.loc 14 29 9 is_stmt 1 discriminator 2 view .LVU464
  24:sego.cpp      ****     {
 1425              		.loc 14 24 25 is_stmt 0 discriminator 2 view .LVU465
 1426 0046 05F10105 		add	r5, r5, #1
 1427              	.LVL63:
  29:sego.cpp      ****         out[i + 1] = sig2;
 1428              		.loc 14 29 20 discriminator 2 view .LVU466
 1429 004a 44F8082C 		str	r2, [r4, #-8]	@ float
  30:sego.cpp      ****     }
 1430              		.loc 14 30 9 is_stmt 1 discriminator 2 view .LVU467
  30:sego.cpp      ****     }
 1431              		.loc 14 30 20 is_stmt 0 discriminator 2 view .LVU468
 1432 004e 3268     		ldr	r2, [r6]	@ float
 1433 0050 44F8042C 		str	r2, [r4, #-4]	@ float
  24:sego.cpp      ****     {
 1434              		.loc 14 24 5 is_stmt 1 discriminator 2 view .LVU469
 1435              	.LVL64:
  24:sego.cpp      ****     {
 1436              		.loc 14 24 25 discriminator 2 view .LVU470
 1437 0054 EAD1     		bne	.L41
 1438              	.L39:
 1439              	.LBE674:
  32:sego.cpp      **** 
 1440              		.loc 14 32 1 is_stmt 0 view .LVU471
 1441 0056 BDE8F081 		pop	{r4, r5, r6, r7, r8, pc}
 1442              	.L48:
 1443 005a 00BF     		.align	2
 1444              	.L47:
 1445 005c 00000000 		.word	hw
 1446 0060 00000000 		.word	.LANCHOR22
ARM GAS  C:\Users\ashgr\AppData\Local\Temp\ccMnbzlT.s 			page 47


 1447 0064 00000000 		.word	.LANCHOR23
 1448 0068 00000000 		.word	.LANCHOR8
 1449 006c 00000000 		.word	.LANCHOR9
 1450              		.cfi_endproc
 1451              	.LFE4322:
 1453              		.section	.text._Z10UpdateLedsv,"ax",%progbits
 1454              		.align	1
 1455              		.p2align 2,,3
 1456              		.global	_Z10UpdateLedsv
 1457              		.syntax unified
 1458              		.thumb
 1459              		.thumb_func
 1460              		.fpu fpv5-d16
 1462              	_Z10UpdateLedsv:
 1463              	.LFB4326:
 175:sego.cpp      **** void Controls()
 1464              		.loc 14 175 19 is_stmt 1 view -0
 1465              		.cfi_startproc
 1466              		@ args = 0, pretend = 0, frame = 0
 1467              		@ frame_needed = 0, uses_anonymous_args = 0
 1468              		@ link register save eliminated.
 175:sego.cpp      **** void Controls()
 1469              		.loc 14 175 20 is_stmt 0 view .LVU473
 1470 0000 7047     		bx	lr
 1471              		.cfi_endproc
 1472              	.LFE4326:
 1474 0002 00BF     		.section	.text._Z8Controlsv,"ax",%progbits
 1475              		.align	1
 1476              		.p2align 2,,3
 1477              		.global	_Z8Controlsv
 1478              		.syntax unified
 1479              		.thumb
 1480              		.thumb_func
 1481              		.fpu fpv5-d16
 1483              	_Z8Controlsv:
 1484              	.LFB4327:
 178:sego.cpp      ****     hw.ProcessAnalogControls();
 1485              		.loc 14 178 1 is_stmt 1 view -0
 1486              		.cfi_startproc
 1487              		@ args = 0, pretend = 0, frame = 0
 1488              		@ frame_needed = 0, uses_anonymous_args = 0
 179:sego.cpp      ****     hw.ProcessDigitalControls();
 1489              		.loc 14 179 5 view .LVU475
 178:sego.cpp      ****     hw.ProcessAnalogControls();
 1490              		.loc 14 178 1 is_stmt 0 view .LVU476
 1491 0000 08B5     		push	{r3, lr}
 1492              		.cfi_def_cfa_offset 8
 1493              		.cfi_offset 3, -8
 1494              		.cfi_offset 14, -4
 179:sego.cpp      ****     hw.ProcessDigitalControls();
 1495              		.loc 14 179 29 view .LVU477
 1496 0002 0648     		ldr	r0, .L52
 1497 0004 FFF7FEFF 		bl	_ZN5daisy11CsoHardware21ProcessAnalogControlsEv
 1498              	.LVL65:
 180:sego.cpp      **** 
 1499              		.loc 14 180 5 is_stmt 1 view .LVU478
 180:sego.cpp      **** 
ARM GAS  C:\Users\ashgr\AppData\Local\Temp\ccMnbzlT.s 			page 48


 1500              		.loc 14 180 30 is_stmt 0 view .LVU479
 1501 0008 0448     		ldr	r0, .L52
 1502 000a FFF7FEFF 		bl	_ZN5daisy11CsoHardware22ProcessDigitalControlsEv
 1503              	.LVL66:
 182:sego.cpp      ****     UpdateSwitches();
 1504              		.loc 14 182 5 is_stmt 1 view .LVU480
 182:sego.cpp      ****     UpdateSwitches();
 1505              		.loc 14 182 16 is_stmt 0 view .LVU481
 1506 000e FFF7FEFF 		bl	_Z11UpdateKnobsv
 1507              	.LVL67:
 183:sego.cpp      ****     UpdateLeds();
 1508              		.loc 14 183 5 is_stmt 1 view .LVU482
 185:sego.cpp      **** }
 1509              		.loc 14 185 1 is_stmt 0 view .LVU483
 1510 0012 BDE80840 		pop	{r3, lr}
 1511              		.cfi_restore 14
 1512              		.cfi_restore 3
 1513              		.cfi_def_cfa_offset 0
 183:sego.cpp      ****     UpdateLeds();
 1514              		.loc 14 183 19 view .LVU484
 1515 0016 FFF7FEBF 		b	_Z14UpdateSwitchesv
 1516              	.LVL68:
 1517              	.L53:
 1518 001a 00BF     		.align	2
 1519              	.L52:
 1520 001c 00000000 		.word	hw
 1521              		.cfi_endproc
 1522              	.LFE4327:
 1524              		.section	.text.startup.main,"ax",%progbits
 1525              		.align	1
 1526              		.p2align 2,,3
 1527              		.global	main
 1528              		.syntax unified
 1529              		.thumb
 1530              		.thumb_func
 1531              		.fpu fpv5-d16
 1533              	main:
 1534              	.LFB4328:
 186:sego.cpp      **** 
 187:sego.cpp      **** int main(void)
 188:sego.cpp      **** {
 1535              		.loc 14 188 1 is_stmt 1 view -0
 1536              		.cfi_startproc
 1537              		@ args = 0, pretend = 0, frame = 0
 1538              		@ frame_needed = 0, uses_anonymous_args = 0
 189:sego.cpp      ****     float samplerate;
 1539              		.loc 14 189 5 view .LVU486
 190:sego.cpp      **** 
 191:sego.cpp      ****     hw.Init();
 1540              		.loc 14 191 5 view .LVU487
 1541              		.loc 14 191 12 is_stmt 0 view .LVU488
 1542 0000 0021     		movs	r1, #0
 1543 0002 0848     		ldr	r0, .L57
 188:sego.cpp      ****     float samplerate;
 1544              		.loc 14 188 1 view .LVU489
 1545 0004 08B5     		push	{r3, lr}
 1546              		.cfi_def_cfa_offset 8
ARM GAS  C:\Users\ashgr\AppData\Local\Temp\ccMnbzlT.s 			page 49


 1547              		.cfi_offset 3, -8
 1548              		.cfi_offset 14, -4
 1549              		.loc 14 191 12 view .LVU490
 1550 0006 FFF7FEFF 		bl	_ZN5daisy11CsoHardware4InitEb
 1551              	.LVL69:
 192:sego.cpp      ****     samplerate = hw.AudioSampleRate();
 1552              		.loc 14 192 5 is_stmt 1 view .LVU491
 1553              		.loc 14 192 36 is_stmt 0 view .LVU492
 1554 000a 0648     		ldr	r0, .L57
 1555 000c FFF7FEFF 		bl	_ZN5daisy11CsoHardware15AudioSampleRateEv
 1556              	.LVL70:
 193:sego.cpp      ****     InitSynth(samplerate);
 1557              		.loc 14 193 5 is_stmt 1 view .LVU493
 1558              		.loc 14 193 14 is_stmt 0 view .LVU494
 1559 0010 FFF7FEFF 		bl	_Z9InitSynthf
 1560              	.LVL71:
 194:sego.cpp      **** 
 195:sego.cpp      ****     hw.StartAdc();
 1561              		.loc 14 195 5 is_stmt 1 view .LVU495
 1562              		.loc 14 195 16 is_stmt 0 view .LVU496
 1563 0014 0348     		ldr	r0, .L57
 1564 0016 FFF7FEFF 		bl	_ZN5daisy11CsoHardware8StartAdcEv
 1565              	.LVL72:
 196:sego.cpp      ****     hw.StartAudio(AudioCallback);
 1566              		.loc 14 196 5 is_stmt 1 view .LVU497
 1567              		.loc 14 196 18 is_stmt 0 view .LVU498
 1568 001a 0349     		ldr	r1, .L57+4
 1569 001c 0148     		ldr	r0, .L57
 1570 001e FFF7FEFF 		bl	_ZN5daisy11CsoHardware10StartAudioEPFvPKfPfjE
 1571              	.LVL73:
 1572              	.L55:
 197:sego.cpp      **** 
 198:sego.cpp      ****     while(1) {}
 1573              		.loc 14 198 5 is_stmt 1 discriminator 1 view .LVU499
 1574              		.loc 14 198 5 discriminator 1 view .LVU500
 1575              		.loc 14 198 5 discriminator 1 view .LVU501
 1576              		.loc 14 198 5 discriminator 1 view .LVU502
 1577 0022 FEE7     		b	.L55
 1578              	.L58:
 1579              		.align	2
 1580              	.L57:
 1581 0024 00000000 		.word	hw
 1582 0028 00000000 		.word	_ZL13AudioCallbackPKfPfj
 1583              		.cfi_endproc
 1584              	.LFE4328:
 1586              		.section	.text.startup._GLOBAL__sub_I_hw,"ax",%progbits
 1587              		.align	1
 1588              		.p2align 2,,3
 1589              		.syntax unified
 1590              		.thumb
 1591              		.thumb_func
 1592              		.fpu fpv5-d16
 1594              	_GLOBAL__sub_I_hw:
 1595              	.LFB4900:
 199:sego.cpp      **** }...
 1596              		.loc 14 199 1 view -0
 1597              		.cfi_startproc
ARM GAS  C:\Users\ashgr\AppData\Local\Temp\ccMnbzlT.s 			page 50


 1598              		@ args = 0, pretend = 0, frame = 0
 1599              		@ frame_needed = 0, uses_anonymous_args = 0
 1600              	.LBB796:
 1601              	.LBI796:
 1602              		.loc 14 199 1 view .LVU504
 1603              	.LVL74:
 1604              	.LBB797:
 1605              	.LBB798:
 1606              	.LBI798:
  39:../../libdaisy/src/cso_hardware.h ****     ~CsoHardware() {}
 1607              		.loc 3 39 5 view .LVU505
 1608              	.LBB799:
 1609              	.LBB800:
 1610              	.LBI800:
  21:../../libdaisy/src/daisy_seed.h ****     ~DaisySeed() {}
 1611              		.loc 8 21 5 view .LVU506
 1612              	.LBB801:
 1613              	.LBB802:
 1614              	.LBI802:
 1615              		.file 16 "../../libdaisy/src/per/qspi.h"
   1:../../libdaisy/src/per/qspi.h **** #ifndef DSY_QSPI
   2:../../libdaisy/src/per/qspi.h **** #define DSY_QSPI /**< Macro */
   3:../../libdaisy/src/per/qspi.h **** 
   4:../../libdaisy/src/per/qspi.h **** #ifndef UNIT_TEST // for unit tests, a dummy implementation
   5:../../libdaisy/src/per/qspi.h **** 
   6:../../libdaisy/src/per/qspi.h **** #include <cstdint>
   7:../../libdaisy/src/per/qspi.h **** #include "daisy_core.h" // Added for dsy_gpio_pin typedef
   8:../../libdaisy/src/per/qspi.h **** 
   9:../../libdaisy/src/per/qspi.h **** #define DSY_QSPI_TEXT       \
  10:../../libdaisy/src/per/qspi.h ****     __attribute__((section( \
  11:../../libdaisy/src/per/qspi.h ****         ".qspiflash_text"))) /**< used for reading memory in memory_mapped mode. */
  12:../../libdaisy/src/per/qspi.h **** #define DSY_QSPI_DATA       \
  13:../../libdaisy/src/per/qspi.h ****     __attribute__((section( \
  14:../../libdaisy/src/per/qspi.h ****         ".qspiflash_data"))) /**< used for reading memory in memory_mapped mode. */
  15:../../libdaisy/src/per/qspi.h **** #define DSY_QSPI_BSS        \
  16:../../libdaisy/src/per/qspi.h ****     __attribute__((section( \
  17:../../libdaisy/src/per/qspi.h ****         ".qspiflash_bss"))) /**< used for reading memory in memory_mapped mode. */
  18:../../libdaisy/src/per/qspi.h **** 
  19:../../libdaisy/src/per/qspi.h **** namespace daisy
  20:../../libdaisy/src/per/qspi.h **** {
  21:../../libdaisy/src/per/qspi.h **** /** @addtogroup serial
  22:../../libdaisy/src/per/qspi.h **** @{
  23:../../libdaisy/src/per/qspi.h **** */
  24:../../libdaisy/src/per/qspi.h **** 
  25:../../libdaisy/src/per/qspi.h **** /** 
  26:../../libdaisy/src/per/qspi.h ****  Driver for QSPI peripheral to interface with external flash memory. \n 
  27:../../libdaisy/src/per/qspi.h ****     Currently supported QSPI Devices: \n 
  28:../../libdaisy/src/per/qspi.h ****     * IS25LP080D
  29:../../libdaisy/src/per/qspi.h **** */
  30:../../libdaisy/src/per/qspi.h **** class QSPIHandle
  31:../../libdaisy/src/per/qspi.h **** {
  32:../../libdaisy/src/per/qspi.h ****   public:
  33:../../libdaisy/src/per/qspi.h ****     enum Result
  34:../../libdaisy/src/per/qspi.h ****     {
  35:../../libdaisy/src/per/qspi.h ****         OK = 0,
  36:../../libdaisy/src/per/qspi.h ****         ERR
  37:../../libdaisy/src/per/qspi.h ****     };
ARM GAS  C:\Users\ashgr\AppData\Local\Temp\ccMnbzlT.s 			page 51


  38:../../libdaisy/src/per/qspi.h **** 
  39:../../libdaisy/src/per/qspi.h ****     /** Indicates the current status of the module. 
  40:../../libdaisy/src/per/qspi.h ****          *  Warnings are indicated by a leading W.
  41:../../libdaisy/src/per/qspi.h ****          *  Errors are indicated by a leading E and cause an immediate exit.
  42:../../libdaisy/src/per/qspi.h ****          * 
  43:../../libdaisy/src/per/qspi.h ****          *  \param GOOD - No errors have been reported.
  44:../../libdaisy/src/per/qspi.h ****          *  \param E_HAL_ERROR - HAL code did not return HAL_OK.
  45:../../libdaisy/src/per/qspi.h ****          *  \param E_SWITCHING_MODES - An error was encountered while switching QSPI peripheral mod
  46:../../libdaisy/src/per/qspi.h ****          *  \param E_INVALID_MODE - QSPI should not be written to while the program is executing fr
  47:../../libdaisy/src/per/qspi.h ****          */
  48:../../libdaisy/src/per/qspi.h ****     enum Status
  49:../../libdaisy/src/per/qspi.h ****     {
  50:../../libdaisy/src/per/qspi.h ****         GOOD = 0,
  51:../../libdaisy/src/per/qspi.h ****         E_HAL_ERROR,
  52:../../libdaisy/src/per/qspi.h ****         E_SWITCHING_MODES,
  53:../../libdaisy/src/per/qspi.h ****         E_INVALID_MODE,
  54:../../libdaisy/src/per/qspi.h ****     };
  55:../../libdaisy/src/per/qspi.h **** 
  56:../../libdaisy/src/per/qspi.h ****     /** Configuration structure for interfacing with QSPI Driver */
  57:../../libdaisy/src/per/qspi.h ****     struct Config
  58:../../libdaisy/src/per/qspi.h ****     {
  59:../../libdaisy/src/per/qspi.h ****         /** Flash Devices supported. (Both of these are more-or-less the same, just different sizes
  60:../../libdaisy/src/per/qspi.h ****         enum Device
  61:../../libdaisy/src/per/qspi.h ****         {
  62:../../libdaisy/src/per/qspi.h ****             IS25LP080D,  /**< & */
  63:../../libdaisy/src/per/qspi.h ****             IS25LP064A,  /**< & */
  64:../../libdaisy/src/per/qspi.h ****             DEVICE_LAST, /**< & */
  65:../../libdaisy/src/per/qspi.h ****         };
  66:../../libdaisy/src/per/qspi.h **** 
  67:../../libdaisy/src/per/qspi.h ****         /** 
  68:../../libdaisy/src/per/qspi.h ****         Modes of operation.
  69:../../libdaisy/src/per/qspi.h ****         Memory Mapped mode: QSPI configured so that the QSPI can be
  70:../../libdaisy/src/per/qspi.h ****         read from starting address 0x90000000. Writing is not
  71:../../libdaisy/src/per/qspi.h ****         possible in this mode. \n 
  72:../../libdaisy/src/per/qspi.h ****         Indirect Polling mode: Device driver enabled. 
  73:../../libdaisy/src/per/qspi.h ****         */
  74:../../libdaisy/src/per/qspi.h ****         enum Mode
  75:../../libdaisy/src/per/qspi.h ****         {
  76:../../libdaisy/src/per/qspi.h ****             MEMORY_MAPPED,    /**< & */
  77:../../libdaisy/src/per/qspi.h ****             INDIRECT_POLLING, /**< & */
  78:../../libdaisy/src/per/qspi.h ****             MODE_LAST,
  79:../../libdaisy/src/per/qspi.h ****         };
  80:../../libdaisy/src/per/qspi.h **** 
  81:../../libdaisy/src/per/qspi.h ****         //SCK,  CE# (active low)
  82:../../libdaisy/src/per/qspi.h ****         struct
  83:../../libdaisy/src/per/qspi.h ****         {
  84:../../libdaisy/src/per/qspi.h ****             dsy_gpio_pin io0; /**< & */
  85:../../libdaisy/src/per/qspi.h ****             dsy_gpio_pin io1; /**< & */
  86:../../libdaisy/src/per/qspi.h ****             dsy_gpio_pin io2; /**< & */
  87:../../libdaisy/src/per/qspi.h ****             dsy_gpio_pin io3; /**< & */
  88:../../libdaisy/src/per/qspi.h ****             dsy_gpio_pin clk; /**< & */
  89:../../libdaisy/src/per/qspi.h ****             dsy_gpio_pin ncs; /**< & */
  90:../../libdaisy/src/per/qspi.h ****         } pin_config;
  91:../../libdaisy/src/per/qspi.h **** 
  92:../../libdaisy/src/per/qspi.h ****         Device device;
  93:../../libdaisy/src/per/qspi.h ****         Mode   mode;
  94:../../libdaisy/src/per/qspi.h ****     };
ARM GAS  C:\Users\ashgr\AppData\Local\Temp\ccMnbzlT.s 			page 52


  95:../../libdaisy/src/per/qspi.h **** 
  96:../../libdaisy/src/per/qspi.h ****     /** 
  97:../../libdaisy/src/per/qspi.h ****         Initializes QSPI peripheral, and Resets, and prepares memory for access.
  98:../../libdaisy/src/per/qspi.h ****         \param config should be populated with the mode, device and pin_config before calling this 
  99:../../libdaisy/src/per/qspi.h ****         \return Result::OK or Result::ERR
 100:../../libdaisy/src/per/qspi.h ****         */
 101:../../libdaisy/src/per/qspi.h ****     Result Init(const Config& config);
 102:../../libdaisy/src/per/qspi.h **** 
 103:../../libdaisy/src/per/qspi.h ****     /** Returns the current config. */
 104:../../libdaisy/src/per/qspi.h ****     const Config& GetConfig() const;
 105:../../libdaisy/src/per/qspi.h **** 
 106:../../libdaisy/src/per/qspi.h ****     // Couldn't this just be called before anything else in init? That
 107:../../libdaisy/src/per/qspi.h ****     // would make manually calling it unnecessary.
 108:../../libdaisy/src/per/qspi.h ****     /** 
 109:../../libdaisy/src/per/qspi.h ****         Deinitializes the peripheral
 110:../../libdaisy/src/per/qspi.h ****         This should be called before reinitializing QSPI in a different mode.
 111:../../libdaisy/src/per/qspi.h ****         \return Result::OK or Result::ERR
 112:../../libdaisy/src/per/qspi.h ****         */
 113:../../libdaisy/src/per/qspi.h ****     Result DeInit();
 114:../../libdaisy/src/per/qspi.h **** 
 115:../../libdaisy/src/per/qspi.h ****     /** 
 116:../../libdaisy/src/per/qspi.h ****         Writes a single page to to the specified address on the QSPI chip.
 117:../../libdaisy/src/per/qspi.h ****         For IS25LP*, page size is 256 bytes.
 118:../../libdaisy/src/per/qspi.h ****         \param address Address to write to
 119:../../libdaisy/src/per/qspi.h ****         \param size Buffer size
 120:../../libdaisy/src/per/qspi.h ****         \param buffer Buffer to write
 121:../../libdaisy/src/per/qspi.h ****         \return Result::OK or Result::ERR
 122:../../libdaisy/src/per/qspi.h ****         */
 123:../../libdaisy/src/per/qspi.h ****     Result WritePage(uint32_t address, uint32_t size, uint8_t* buffer);
 124:../../libdaisy/src/per/qspi.h **** 
 125:../../libdaisy/src/per/qspi.h ****     /** 
 126:../../libdaisy/src/per/qspi.h ****         Writes data in buffer to to the QSPI. Starting at address to address+size 
 127:../../libdaisy/src/per/qspi.h ****         \param address Address to write to
 128:../../libdaisy/src/per/qspi.h ****         \param size Buffer size
 129:../../libdaisy/src/per/qspi.h ****         \param buffer Buffer to write
 130:../../libdaisy/src/per/qspi.h ****         \return Result::OK or Result::ERR
 131:../../libdaisy/src/per/qspi.h ****         */
 132:../../libdaisy/src/per/qspi.h ****     Result Write(uint32_t address, uint32_t size, uint8_t* buffer);
 133:../../libdaisy/src/per/qspi.h **** 
 134:../../libdaisy/src/per/qspi.h ****     /** 
 135:../../libdaisy/src/per/qspi.h ****         Erases the area specified on the chip.
 136:../../libdaisy/src/per/qspi.h ****         Erasures will happen by 4K, 32K or 64K increments.
 137:../../libdaisy/src/per/qspi.h ****         Smallest erase possible is 4kB at a time. (on IS25LP*)
 138:../../libdaisy/src/per/qspi.h ****         \param start_addr Address to begin erasing from
 139:../../libdaisy/src/per/qspi.h ****         \param end_addr  Address to stop erasing at
 140:../../libdaisy/src/per/qspi.h ****         \return Result::OK or Result::ERR
 141:../../libdaisy/src/per/qspi.h ****         */
 142:../../libdaisy/src/per/qspi.h ****     Result Erase(uint32_t start_addr, uint32_t end_addr);
 143:../../libdaisy/src/per/qspi.h **** 
 144:../../libdaisy/src/per/qspi.h ****     /**  
 145:../../libdaisy/src/per/qspi.h ****          Erases a single sector of the chip.  
 146:../../libdaisy/src/per/qspi.h ****         TODO: Document the size of this function. 
 147:../../libdaisy/src/per/qspi.h ****         \param addr Address of sector to erase
 148:../../libdaisy/src/per/qspi.h ****         \return Result::OK or Result::ERR
 149:../../libdaisy/src/per/qspi.h ****         */
 150:../../libdaisy/src/per/qspi.h ****     Result EraseSector(uint32_t address);
 151:../../libdaisy/src/per/qspi.h **** 
ARM GAS  C:\Users\ashgr\AppData\Local\Temp\ccMnbzlT.s 			page 53


 152:../../libdaisy/src/per/qspi.h ****     /** Returns the current class status. Useful for debugging.
 153:../../libdaisy/src/per/qspi.h ****      *  \returns Status
 154:../../libdaisy/src/per/qspi.h ****      */
 155:../../libdaisy/src/per/qspi.h ****     Status GetStatus();
 156:../../libdaisy/src/per/qspi.h **** 
 157:../../libdaisy/src/per/qspi.h ****     /** Returns a pointer to the actual memory used 
 158:../../libdaisy/src/per/qspi.h ****      *  The memory at this address is read-only
 159:../../libdaisy/src/per/qspi.h ****      *  to write to it use the Write function.
 160:../../libdaisy/src/per/qspi.h ****      * 
 161:../../libdaisy/src/per/qspi.h ****      *  \param offset returns the pointer starting this 
 162:../../libdaisy/src/per/qspi.h ****      *                many bytes into the memory
 163:../../libdaisy/src/per/qspi.h ****     */
 164:../../libdaisy/src/per/qspi.h ****     void* GetData(uint32_t offset = 0);
 165:../../libdaisy/src/per/qspi.h **** 
 166:../../libdaisy/src/per/qspi.h ****     QSPIHandle() : pimpl_(nullptr) {}
 1616              		.loc 16 166 5 view .LVU507
 1617              	.LBB803:
 1618              	.LBB804:
 1619              		.loc 16 166 34 is_stmt 0 view .LVU508
 1620 0000 2C48     		ldr	r0, .L61
 1621 0002 0022     		movs	r2, #0
 1622              	.LBE804:
 1623              	.LBE803:
 1624              	.LBE802:
 1625              	.LBE801:
 1626              	.LBE800:
 1627              	.LBB820:
 1628              	.LBB821:
 1629              	.LBB822:
 1630              	.LBB823:
 1631              	.LBB824:
 1632              	.LBB825:
 1633              	.LBB826:
  36:../../libdaisy/src/hid/midi.h ****             tx     = {DSY_GPIOB, 6};
 1634              		.loc 4 36 20 view .LVU509
 1635 0004 2C49     		ldr	r1, .L61+4
 1636              	.LBE826:
 1637              	.LBE825:
 1638              	.LBE824:
 1639              	.LBE823:
 1640              	.LBE822:
 1641              	.LBE821:
 1642              	.LBE820:
 1643              	.LBE799:
 1644              	.LBE798:
 1645              	.LBE797:
 1646              	.LBE796:
 1647              		.loc 14 199 1 view .LVU510
 1648 0006 38B5     		push	{r3, r4, r5, lr}
 1649              		.cfi_def_cfa_offset 16
 1650              		.cfi_offset 3, -16
 1651              		.cfi_offset 4, -12
 1652              		.cfi_offset 5, -8
 1653              		.cfi_offset 14, -4
 1654              	.LBB943:
 1655              	.LBB941:
 1656              	.LBB911:
ARM GAS  C:\Users\ashgr\AppData\Local\Temp\ccMnbzlT.s 			page 54


 1657              	.LBB907:
 1658              	.LBB873:
 1659              	.LBB867:
 1660              	.LBB861:
 1661              	.LBB845:
 1662              	.LBB839:
 1663              	.LBB833:
 1664              	.LBB827:
  35:../../libdaisy/src/hid/midi.h ****             rx     = {DSY_GPIOB, 7};
 1665              		.loc 4 35 20 view .LVU511
 1666 0008 00F51043 		add	r3, r0, #36864
 1667              	.LBE827:
 1668              	.LBE833:
 1669              	.LBE839:
 1670              	.LBE845:
 1671              	.LBE861:
 1672              	.LBE867:
 1673              	.LBE873:
 1674              	.LBB874:
 1675              	.LBB818:
 1676              	.LBB807:
 1677              	.LBB806:
 1678              	.LBB805:
 1679              		.loc 16 166 34 view .LVU512
 1680 000c 0260     		str	r2, [r0]
 1681              	.LVL75:
 1682              		.loc 16 166 34 view .LVU513
 1683              	.LBE805:
 1684              	.LBE806:
 1685              	.LBE807:
 1686              	.LBB808:
 1687              	.LBI808:
  62:../../libdaisy/src/hid/audio.h ****     ~AudioHandle() {}
 1688              		.loc 12 62 5 is_stmt 1 view .LVU514
 1689              	.LBB809:
 1690              	.LBB810:
  62:../../libdaisy/src/hid/audio.h ****     ~AudioHandle() {}
 1691              		.loc 12 62 35 is_stmt 0 view .LVU515
 1692 000e 4261     		str	r2, [r0, #20]
 1693              	.LVL76:
  62:../../libdaisy/src/hid/audio.h ****     ~AudioHandle() {}
 1694              		.loc 12 62 35 view .LVU516
 1695              	.LBE810:
 1696              	.LBE809:
 1697              	.LBE808:
 1698              	.LBB811:
 1699              	.LBI811:
  84:../../libdaisy/src/per/adc.h ****     ~AdcHandle() {}
 1700              		.loc 11 84 5 is_stmt 1 view .LVU517
  84:../../libdaisy/src/per/adc.h ****     ~AdcHandle() {}
 1701              		.loc 11 84 5 is_stmt 0 view .LVU518
 1702              	.LBE811:
 1703              	.LBB812:
 1704              	.LBI812:
 1705              		.file 17 "../../libdaisy/src/per/dac.h"
   1:../../libdaisy/src/per/dac.h **** #pragma once
   2:../../libdaisy/src/per/dac.h **** #ifndef DSY_DAC_H
ARM GAS  C:\Users\ashgr\AppData\Local\Temp\ccMnbzlT.s 			page 55


   3:../../libdaisy/src/per/dac.h **** #define DSY_DAC_H
   4:../../libdaisy/src/per/dac.h **** 
   5:../../libdaisy/src/per/dac.h **** #include "daisy_core.h"
   6:../../libdaisy/src/per/dac.h **** 
   7:../../libdaisy/src/per/dac.h **** namespace daisy
   8:../../libdaisy/src/per/dac.h **** {
   9:../../libdaisy/src/per/dac.h **** /** DAC handle for Built-in DAC Peripheral 
  10:../../libdaisy/src/per/dac.h ****  ** 
  11:../../libdaisy/src/per/dac.h ****  ** For now only Normal Mode is supported,
  12:../../libdaisy/src/per/dac.h ****  ** Sample and hold mode provides reduced power consumption, but requires a bit more setup.
  13:../../libdaisy/src/per/dac.h ****  **
  14:../../libdaisy/src/per/dac.h ****  ** For now connecting the DAC through other internal periphearls is also not supported.
  15:../../libdaisy/src/per/dac.h ****  **
  16:../../libdaisy/src/per/dac.h ****  ** Since the DAC channels have dedicated pins we don't need to pass in a pin config like with
  17:../../libdaisy/src/per/dac.h ****  ** other modules. However, it is still important to not try to use the DAC pins for anything else.
  18:../../libdaisy/src/per/dac.h ****  ** DAC Channel 1 is on PA4, and DAC Channel 2 is on PA5
  19:../../libdaisy/src/per/dac.h ****  ***/
  20:../../libdaisy/src/per/dac.h **** class DacHandle
  21:../../libdaisy/src/per/dac.h **** {
  22:../../libdaisy/src/per/dac.h ****   public:
  23:../../libdaisy/src/per/dac.h ****     /** Return Values for the DacHandle class */
  24:../../libdaisy/src/per/dac.h ****     enum class Result
  25:../../libdaisy/src/per/dac.h ****     {
  26:../../libdaisy/src/per/dac.h ****         OK,
  27:../../libdaisy/src/per/dac.h ****         ERR,
  28:../../libdaisy/src/per/dac.h ****     };
  29:../../libdaisy/src/per/dac.h **** 
  30:../../libdaisy/src/per/dac.h ****     /** Selects which channel(s) will be configured for use. */
  31:../../libdaisy/src/per/dac.h ****     enum class Channel
  32:../../libdaisy/src/per/dac.h ****     {
  33:../../libdaisy/src/per/dac.h ****         ONE,
  34:../../libdaisy/src/per/dac.h ****         TWO,
  35:../../libdaisy/src/per/dac.h ****         BOTH,
  36:../../libdaisy/src/per/dac.h ****     };
  37:../../libdaisy/src/per/dac.h **** 
  38:../../libdaisy/src/per/dac.h ****     /** Sets the Mode for the DAC channels.
  39:../../libdaisy/src/per/dac.h ****      **
  40:../../libdaisy/src/per/dac.h ****      ** Polling mode uses the blocking mode to transmit a single value at a time.
  41:../../libdaisy/src/per/dac.h ****      **
  42:../../libdaisy/src/per/dac.h ****      ** DMA mode uses a buffer, and periodically transmits it triggering a 
  43:../../libdaisy/src/per/dac.h ****      ** callback to fill the buffer when it is ready for more samples.
  44:../../libdaisy/src/per/dac.h ****      ***/
  45:../../libdaisy/src/per/dac.h ****     enum class Mode
  46:../../libdaisy/src/per/dac.h ****     {
  47:../../libdaisy/src/per/dac.h ****         POLLING,
  48:../../libdaisy/src/per/dac.h ****         DMA,
  49:../../libdaisy/src/per/dac.h ****     };
  50:../../libdaisy/src/per/dac.h **** 
  51:../../libdaisy/src/per/dac.h ****     /** Sets the number of bits per sample transmitted out of the DAC.
  52:../../libdaisy/src/per/dac.h ****      ** The output range will be: 0V - VDDA
  53:../../libdaisy/src/per/dac.h ****      ** The resolution will be roughly: bitdepth / (VDDA - 0V) 
  54:../../libdaisy/src/per/dac.h ****      ***/
  55:../../libdaisy/src/per/dac.h ****     enum class BitDepth
  56:../../libdaisy/src/per/dac.h ****     {
  57:../../libdaisy/src/per/dac.h ****         BITS_8,
  58:../../libdaisy/src/per/dac.h ****         BITS_12
  59:../../libdaisy/src/per/dac.h ****     };
ARM GAS  C:\Users\ashgr\AppData\Local\Temp\ccMnbzlT.s 			page 56


  60:../../libdaisy/src/per/dac.h **** 
  61:../../libdaisy/src/per/dac.h ****     /** Sets whether the DAC output is buffered for higher drive ability. */
  62:../../libdaisy/src/per/dac.h ****     enum class BufferState
  63:../../libdaisy/src/per/dac.h ****     {
  64:../../libdaisy/src/per/dac.h ****         ENABLED,
  65:../../libdaisy/src/per/dac.h ****         DISABLED,
  66:../../libdaisy/src/per/dac.h ****     };
  67:../../libdaisy/src/per/dac.h **** 
  68:../../libdaisy/src/per/dac.h ****     /** Configuration structure for initializing the DAC structure. */
  69:../../libdaisy/src/per/dac.h ****     struct Config
  70:../../libdaisy/src/per/dac.h ****     {
  71:../../libdaisy/src/per/dac.h ****         /** Target Samplerate in Hz used to configure the internal 
  72:../../libdaisy/src/per/dac.h ****          ** timebase for DMA mode. Does nothing in POLLING mode.
  73:../../libdaisy/src/per/dac.h ****          ** If the value is 0 at Init time this will default to 48000Hz 
  74:../../libdaisy/src/per/dac.h ****          ** otherwise the driver will attempt meet the target.*/
  75:../../libdaisy/src/per/dac.h ****         uint32_t target_samplerate;
  76:../../libdaisy/src/per/dac.h **** 
  77:../../libdaisy/src/per/dac.h ****         Channel     chn;
  78:../../libdaisy/src/per/dac.h ****         Mode        mode;
  79:../../libdaisy/src/per/dac.h ****         BitDepth    bitdepth;
  80:../../libdaisy/src/per/dac.h ****         BufferState buff_state;
  81:../../libdaisy/src/per/dac.h ****     };
  82:../../libdaisy/src/per/dac.h **** 
  83:../../libdaisy/src/per/dac.h ****     DacHandle() : pimpl_(nullptr) {}
 1706              		.loc 17 83 5 is_stmt 1 view .LVU519
 1707              	.LBE812:
 1708              	.LBE818:
 1709              	.LBE874:
 1710              	.LBB875:
 1711              	.LBB868:
 1712              	.LBB862:
 1713              	.LBB846:
 1714              	.LBB840:
 1715              	.LBB834:
 1716              	.LBB828:
  35:../../libdaisy/src/hid/midi.h ****             rx     = {DSY_GPIOB, 7};
 1717              		.loc 4 35 20 is_stmt 0 view .LVU520
 1718 0010 C3F87C23 		str	r2, [r3, #892]
 1719              	.LBE828:
 1720              	.LBE834:
 1721              	.LBE840:
 1722              	.LBE846:
 1723              	.LBB847:
 1724              	.LBB848:
 1725              	.LBB849:
 1726              	.LBB850:
 1727              		.file 18 "../../libdaisy/src/per/uart.h"
   1:../../libdaisy/src/per/uart.h **** /* 
   2:../../libdaisy/src/per/uart.h **** TODO
   3:../../libdaisy/src/per/uart.h **** - UART1 defaults to DMA, add flexible config for DMA on all periphs
   4:../../libdaisy/src/per/uart.h **** - Transmit function improvements.
   5:../../libdaisy/src/per/uart.h **** - Overflow handling, etc. for Rx Queue.
   6:../../libdaisy/src/per/uart.h **** */
   7:../../libdaisy/src/per/uart.h **** 
   8:../../libdaisy/src/per/uart.h **** #pragma once
   9:../../libdaisy/src/per/uart.h **** #ifndef DSY_UART_H
  10:../../libdaisy/src/per/uart.h **** #define DSY_UART_H /**< macro */
ARM GAS  C:\Users\ashgr\AppData\Local\Temp\ccMnbzlT.s 			page 57


  11:../../libdaisy/src/per/uart.h **** #include "daisy_core.h"
  12:../../libdaisy/src/per/uart.h **** 
  13:../../libdaisy/src/per/uart.h **** 
  14:../../libdaisy/src/per/uart.h **** namespace daisy
  15:../../libdaisy/src/per/uart.h **** {
  16:../../libdaisy/src/per/uart.h **** /** @addtogroup serial
  17:../../libdaisy/src/per/uart.h ****     @{
  18:../../libdaisy/src/per/uart.h ****     */
  19:../../libdaisy/src/per/uart.h **** 
  20:../../libdaisy/src/per/uart.h **** /** 
  21:../../libdaisy/src/per/uart.h ****     Uart Peripheral
  22:../../libdaisy/src/per/uart.h ****     @author shensley
  23:../../libdaisy/src/per/uart.h ****     @date March 2020
  24:../../libdaisy/src/per/uart.h ****     */
  25:../../libdaisy/src/per/uart.h **** class UartHandler
  26:../../libdaisy/src/per/uart.h **** {
  27:../../libdaisy/src/per/uart.h ****   public:
  28:../../libdaisy/src/per/uart.h ****     struct Config
  29:../../libdaisy/src/per/uart.h ****     {
  30:../../libdaisy/src/per/uart.h ****         enum class Peripheral
  31:../../libdaisy/src/per/uart.h ****         {
  32:../../libdaisy/src/per/uart.h ****             USART_1,
  33:../../libdaisy/src/per/uart.h ****             USART_2,
  34:../../libdaisy/src/per/uart.h ****             USART_3,
  35:../../libdaisy/src/per/uart.h ****             UART_4,
  36:../../libdaisy/src/per/uart.h ****             UART_5,
  37:../../libdaisy/src/per/uart.h ****             USART_6,
  38:../../libdaisy/src/per/uart.h ****             UART_7,
  39:../../libdaisy/src/per/uart.h ****             UART_8,
  40:../../libdaisy/src/per/uart.h ****             LPUART_1,
  41:../../libdaisy/src/per/uart.h ****         };
  42:../../libdaisy/src/per/uart.h **** 
  43:../../libdaisy/src/per/uart.h ****         enum class StopBits
  44:../../libdaisy/src/per/uart.h ****         {
  45:../../libdaisy/src/per/uart.h ****             BITS_0_5,
  46:../../libdaisy/src/per/uart.h ****             BITS_1,
  47:../../libdaisy/src/per/uart.h ****             BITS_1_5,
  48:../../libdaisy/src/per/uart.h ****             BITS_2,
  49:../../libdaisy/src/per/uart.h ****         };
  50:../../libdaisy/src/per/uart.h **** 
  51:../../libdaisy/src/per/uart.h ****         enum class Parity
  52:../../libdaisy/src/per/uart.h ****         {
  53:../../libdaisy/src/per/uart.h ****             NONE,
  54:../../libdaisy/src/per/uart.h ****             EVEN,
  55:../../libdaisy/src/per/uart.h ****             ODD,
  56:../../libdaisy/src/per/uart.h ****         };
  57:../../libdaisy/src/per/uart.h **** 
  58:../../libdaisy/src/per/uart.h ****         enum class Mode
  59:../../libdaisy/src/per/uart.h ****         {
  60:../../libdaisy/src/per/uart.h ****             RX,
  61:../../libdaisy/src/per/uart.h ****             TX,
  62:../../libdaisy/src/per/uart.h ****             TX_RX,
  63:../../libdaisy/src/per/uart.h ****         };
  64:../../libdaisy/src/per/uart.h **** 
  65:../../libdaisy/src/per/uart.h ****         enum class WordLength
  66:../../libdaisy/src/per/uart.h ****         {
  67:../../libdaisy/src/per/uart.h ****             BITS_7,
ARM GAS  C:\Users\ashgr\AppData\Local\Temp\ccMnbzlT.s 			page 58


  68:../../libdaisy/src/per/uart.h ****             BITS_8,
  69:../../libdaisy/src/per/uart.h ****             BITS_9,
  70:../../libdaisy/src/per/uart.h ****         };
  71:../../libdaisy/src/per/uart.h **** 
  72:../../libdaisy/src/per/uart.h ****         struct
  73:../../libdaisy/src/per/uart.h ****         {
  74:../../libdaisy/src/per/uart.h ****             dsy_gpio_pin tx; /**< & */
  75:../../libdaisy/src/per/uart.h ****             dsy_gpio_pin rx; /**< & */
  76:../../libdaisy/src/per/uart.h ****         } pin_config;        /**< & */
  77:../../libdaisy/src/per/uart.h **** 
  78:../../libdaisy/src/per/uart.h ****         Peripheral periph;
  79:../../libdaisy/src/per/uart.h ****         StopBits   stopbits;
  80:../../libdaisy/src/per/uart.h ****         Parity     parity;
  81:../../libdaisy/src/per/uart.h ****         Mode       mode;
  82:../../libdaisy/src/per/uart.h ****         WordLength wordlength;
  83:../../libdaisy/src/per/uart.h ****         uint32_t   baudrate;
  84:../../libdaisy/src/per/uart.h ****     };
  85:../../libdaisy/src/per/uart.h **** 
  86:../../libdaisy/src/per/uart.h **** 
  87:../../libdaisy/src/per/uart.h ****     UartHandler() : pimpl_(nullptr) {}
 1728              		.loc 18 87 35 view .LVU521
 1729 0014 C3F88423 		str	r2, [r3, #900]
 1730              	.LBE850:
 1731              	.LBE849:
 1732              	.LBE848:
 1733              	.LBE847:
 1734              	.LBE862:
 1735              	.LBE868:
 1736              	.LBE875:
 1737              	.LBB876:
 1738              	.LBB819:
 1739              	.LBB815:
 1740              	.LBB813:
 1741              	.LBB814:
 1742              		.loc 17 83 33 view .LVU522
 1743 0018 0262     		str	r2, [r0, #32]
 1744              	.LVL77:
 1745              		.loc 17 83 33 view .LVU523
 1746              	.LBE814:
 1747              	.LBE813:
 1748              	.LBE815:
 1749              	.LBB816:
 1750              	.LBI816:
  40:../../libdaisy/src/hid/usb.h **** 
 1751              		.loc 10 40 5 is_stmt 1 view .LVU524
  40:../../libdaisy/src/hid/usb.h **** 
 1752              		.loc 10 40 5 is_stmt 0 view .LVU525
 1753              	.LBE816:
 1754              	.LBB817:
 1755              	.LBI817:
  77:../../libdaisy/src/sys/system.h ****     ~System() {}
 1756              		.loc 9 77 5 is_stmt 1 view .LVU526
  77:../../libdaisy/src/sys/system.h ****     ~System() {}
 1757              		.loc 9 77 5 is_stmt 0 view .LVU527
 1758              	.LBE817:
 1759              	.LBE819:
 1760              	.LBE876:
ARM GAS  C:\Users\ashgr\AppData\Local\Temp\ccMnbzlT.s 			page 59


 1761              	.LBB877:
 1762              	.LBI877:
  21:../../libdaisy/src/hid/ctrl.h ****     /** destructor */
 1763              		.loc 2 21 5 is_stmt 1 view .LVU528
  21:../../libdaisy/src/hid/ctrl.h ****     /** destructor */
 1764              		.loc 2 21 5 is_stmt 0 view .LVU529
 1765              	.LBE877:
 1766              	.LBB878:
 1767              	.LBI878:
  21:../../libdaisy/src/hid/ctrl.h ****     /** destructor */
 1768              		.loc 2 21 5 is_stmt 1 view .LVU530
  21:../../libdaisy/src/hid/ctrl.h ****     /** destructor */
 1769              		.loc 2 21 5 is_stmt 0 view .LVU531
 1770              	.LBE878:
 1771              	.LBB879:
 1772              	.LBI879:
  21:../../libdaisy/src/hid/ctrl.h ****     /** destructor */
 1773              		.loc 2 21 5 is_stmt 1 view .LVU532
  21:../../libdaisy/src/hid/ctrl.h ****     /** destructor */
 1774              		.loc 2 21 5 is_stmt 0 view .LVU533
 1775              	.LBE879:
 1776              	.LBB880:
 1777              	.LBI880:
  21:../../libdaisy/src/hid/ctrl.h ****     /** destructor */
 1778              		.loc 2 21 5 is_stmt 1 view .LVU534
  21:../../libdaisy/src/hid/ctrl.h ****     /** destructor */
 1779              		.loc 2 21 5 is_stmt 0 view .LVU535
 1780              	.LBE880:
 1781              	.LBB881:
 1782              	.LBI881:
  21:../../libdaisy/src/hid/ctrl.h ****     /** destructor */
 1783              		.loc 2 21 5 is_stmt 1 view .LVU536
  21:../../libdaisy/src/hid/ctrl.h ****     /** destructor */
 1784              		.loc 2 21 5 is_stmt 0 view .LVU537
 1785              	.LBE881:
 1786              	.LBB882:
 1787              	.LBI882:
  21:../../libdaisy/src/hid/ctrl.h ****     /** destructor */
 1788              		.loc 2 21 5 is_stmt 1 view .LVU538
  21:../../libdaisy/src/hid/ctrl.h ****     /** destructor */
 1789              		.loc 2 21 5 is_stmt 0 view .LVU539
 1790              	.LBE882:
 1791              	.LBB883:
 1792              	.LBI883:
  21:../../libdaisy/src/hid/ctrl.h ****     /** destructor */
 1793              		.loc 2 21 5 is_stmt 1 view .LVU540
  21:../../libdaisy/src/hid/ctrl.h ****     /** destructor */
 1794              		.loc 2 21 5 is_stmt 0 view .LVU541
 1795              	.LBE883:
 1796              	.LBB884:
 1797              	.LBI884:
  21:../../libdaisy/src/hid/ctrl.h ****     /** destructor */
 1798              		.loc 2 21 5 is_stmt 1 view .LVU542
  21:../../libdaisy/src/hid/ctrl.h ****     /** destructor */
 1799              		.loc 2 21 5 is_stmt 0 view .LVU543
 1800              	.LBE884:
 1801              	.LBB885:
ARM GAS  C:\Users\ashgr\AppData\Local\Temp\ccMnbzlT.s 			page 60


 1802              	.LBI885:
  21:../../libdaisy/src/hid/ctrl.h ****     /** destructor */
 1803              		.loc 2 21 5 is_stmt 1 view .LVU544
  21:../../libdaisy/src/hid/ctrl.h ****     /** destructor */
 1804              		.loc 2 21 5 is_stmt 0 view .LVU545
 1805              	.LBE885:
 1806              	.LBB886:
 1807              	.LBI886:
  21:../../libdaisy/src/hid/ctrl.h ****     /** destructor */
 1808              		.loc 2 21 5 is_stmt 1 view .LVU546
  21:../../libdaisy/src/hid/ctrl.h ****     /** destructor */
 1809              		.loc 2 21 5 is_stmt 0 view .LVU547
 1810              	.LBE886:
 1811              	.LBB887:
 1812              	.LBI887:
  21:../../libdaisy/src/hid/ctrl.h ****     /** destructor */
 1813              		.loc 2 21 5 is_stmt 1 view .LVU548
  21:../../libdaisy/src/hid/ctrl.h ****     /** destructor */
 1814              		.loc 2 21 5 is_stmt 0 view .LVU549
 1815              	.LBE887:
 1816              	.LBB888:
 1817              	.LBI888:
  21:../../libdaisy/src/hid/ctrl.h ****     /** destructor */
 1818              		.loc 2 21 5 is_stmt 1 view .LVU550
  21:../../libdaisy/src/hid/ctrl.h ****     /** destructor */
 1819              		.loc 2 21 5 is_stmt 0 view .LVU551
 1820              	.LBE888:
 1821              	.LBB889:
 1822              	.LBI889:
  41:../../libdaisy/src/hid/switch.h ****     ~Switch() {}
 1823              		.loc 7 41 5 is_stmt 1 view .LVU552
  41:../../libdaisy/src/hid/switch.h ****     ~Switch() {}
 1824              		.loc 7 41 5 is_stmt 0 view .LVU553
 1825              	.LBE889:
 1826              	.LBB890:
 1827              	.LBI890:
  41:../../libdaisy/src/hid/switch.h ****     ~Switch() {}
 1828              		.loc 7 41 5 is_stmt 1 view .LVU554
  41:../../libdaisy/src/hid/switch.h ****     ~Switch() {}
 1829              		.loc 7 41 5 is_stmt 0 view .LVU555
 1830              	.LBE890:
 1831              	.LBB891:
 1832              	.LBI891:
  41:../../libdaisy/src/hid/switch.h ****     ~Switch() {}
 1833              		.loc 7 41 5 is_stmt 1 view .LVU556
  41:../../libdaisy/src/hid/switch.h ****     ~Switch() {}
 1834              		.loc 7 41 5 is_stmt 0 view .LVU557
 1835              	.LBE891:
 1836              	.LBB892:
 1837              	.LBI892:
  41:../../libdaisy/src/hid/switch.h ****     ~Switch() {}
 1838              		.loc 7 41 5 is_stmt 1 view .LVU558
  41:../../libdaisy/src/hid/switch.h ****     ~Switch() {}
 1839              		.loc 7 41 5 is_stmt 0 view .LVU559
 1840              	.LBE892:
 1841              	.LBB893:
 1842              	.LBI893:
ARM GAS  C:\Users\ashgr\AppData\Local\Temp\ccMnbzlT.s 			page 61


  17:../../libdaisy/src/hid/rgb_led.h ****     ~RgbLed() {}
 1843              		.loc 5 17 5 is_stmt 1 view .LVU560
 1844              	.LBB894:
 1845              	.LBB895:
 1846              	.LBI895:
  24:../../libdaisy/src/hid/led.h ****     ~Led() {}
 1847              		.loc 6 24 5 view .LVU561
  24:../../libdaisy/src/hid/led.h ****     ~Led() {}
 1848              		.loc 6 24 5 is_stmt 0 view .LVU562
 1849              	.LBE895:
 1850              	.LBB896:
 1851              	.LBI896:
  24:../../libdaisy/src/hid/led.h ****     ~Led() {}
 1852              		.loc 6 24 5 is_stmt 1 view .LVU563
  24:../../libdaisy/src/hid/led.h ****     ~Led() {}
 1853              		.loc 6 24 5 is_stmt 0 view .LVU564
 1854              	.LBE896:
 1855              	.LBB897:
 1856              	.LBI897:
  24:../../libdaisy/src/hid/led.h ****     ~Led() {}
 1857              		.loc 6 24 5 is_stmt 1 view .LVU565
  24:../../libdaisy/src/hid/led.h ****     ~Led() {}
 1858              		.loc 6 24 5 is_stmt 0 view .LVU566
 1859              	.LBE897:
 1860              	.LBE894:
 1861              	.LBE893:
 1862              	.LBB898:
 1863              	.LBI898:
  17:../../libdaisy/src/hid/rgb_led.h ****     ~RgbLed() {}
 1864              		.loc 5 17 5 is_stmt 1 view .LVU567
 1865              	.LBB899:
 1866              	.LBB900:
 1867              	.LBI900:
  24:../../libdaisy/src/hid/led.h ****     ~Led() {}
 1868              		.loc 6 24 5 view .LVU568
  24:../../libdaisy/src/hid/led.h ****     ~Led() {}
 1869              		.loc 6 24 5 is_stmt 0 view .LVU569
 1870              	.LBE900:
 1871              	.LBB901:
 1872              	.LBI901:
  24:../../libdaisy/src/hid/led.h ****     ~Led() {}
 1873              		.loc 6 24 5 is_stmt 1 view .LVU570
  24:../../libdaisy/src/hid/led.h ****     ~Led() {}
 1874              		.loc 6 24 5 is_stmt 0 view .LVU571
 1875              	.LBE901:
 1876              	.LBB902:
 1877              	.LBI902:
  24:../../libdaisy/src/hid/led.h ****     ~Led() {}
 1878              		.loc 6 24 5 is_stmt 1 view .LVU572
  24:../../libdaisy/src/hid/led.h ****     ~Led() {}
 1879              		.loc 6 24 5 is_stmt 0 view .LVU573
 1880              	.LBE902:
 1881              	.LBE899:
 1882              	.LBE898:
 1883              	.LBB903:
 1884              	.LBI820:
  82:../../libdaisy/src/hid/midi.h ****     ~MidiHandler() {}
ARM GAS  C:\Users\ashgr\AppData\Local\Temp\ccMnbzlT.s 			page 62


 1885              		.loc 4 82 5 is_stmt 1 view .LVU574
 1886              	.LBB869:
 1887              	.LBB863:
 1888              	.LBB852:
 1889              	.LBI852:
 1890              		.loc 18 87 5 view .LVU575
 1891              	.LBB853:
 1892              	.LBB854:
 1893              		.loc 18 87 35 is_stmt 0 view .LVU576
 1894 001a C0F8D422 		str	r2, [r0, #724]
 1895              	.LVL78:
 1896              		.loc 18 87 35 view .LVU577
 1897              	.LBE854:
 1898              	.LBE853:
 1899              	.LBE852:
 1900              	.LBB855:
 1901              	.LBI855:
 1902              		.file 19 "../../libdaisy/src/util/ringbuffer.h"
   1:../../libdaisy/src/util/ringbuffer.h **** #pragma once
   2:../../libdaisy/src/util/ringbuffer.h **** #ifndef DSY_RINGBUFFER_H
   3:../../libdaisy/src/util/ringbuffer.h **** #define DSY_RINGBUFFER_H
   4:../../libdaisy/src/util/ringbuffer.h **** 
   5:../../libdaisy/src/util/ringbuffer.h **** #include <algorithm>
   6:../../libdaisy/src/util/ringbuffer.h **** 
   7:../../libdaisy/src/util/ringbuffer.h **** namespace daisy
   8:../../libdaisy/src/util/ringbuffer.h **** {
   9:../../libdaisy/src/util/ringbuffer.h **** /** @addtogroup utility
  10:../../libdaisy/src/util/ringbuffer.h ****     @{
  11:../../libdaisy/src/util/ringbuffer.h **** */
  12:../../libdaisy/src/util/ringbuffer.h **** 
  13:../../libdaisy/src/util/ringbuffer.h **** /**
  14:../../libdaisy/src/util/ringbuffer.h **** Utility Ring Buffer \n 
  15:../../libdaisy/src/util/ringbuffer.h **** imported from pichenettes/stmlib
  16:../../libdaisy/src/util/ringbuffer.h **** */
  17:../../libdaisy/src/util/ringbuffer.h **** template <typename T, size_t size>
  18:../../libdaisy/src/util/ringbuffer.h **** class RingBuffer
  19:../../libdaisy/src/util/ringbuffer.h **** {
  20:../../libdaisy/src/util/ringbuffer.h ****   public:
  21:../../libdaisy/src/util/ringbuffer.h ****     RingBuffer() {}
 1903              		.loc 19 21 5 is_stmt 1 view .LVU578
 1904              		.loc 19 21 5 is_stmt 0 view .LVU579
 1905              	.LBE855:
 1906              	.LBB856:
 1907              	.LBI823:
  84:../../libdaisy/src/hid/midi.h **** 
  85:../../libdaisy/src/hid/midi.h ****     struct Config
 1908              		.loc 4 85 12 is_stmt 1 view .LVU580
 1909              	.LBB841:
 1910              	.LBI824:
  33:../../libdaisy/src/hid/midi.h ****         {
 1911              		.loc 4 33 9 view .LVU581
 1912              	.LBB835:
 1913              	.LBB829:
  35:../../libdaisy/src/hid/midi.h ****             rx     = {DSY_GPIOB, 7};
 1914              		.loc 4 35 13 view .LVU582
  36:../../libdaisy/src/hid/midi.h ****             tx     = {DSY_GPIOB, 6};
 1915              		.loc 4 36 13 view .LVU583
ARM GAS  C:\Users\ashgr\AppData\Local\Temp\ccMnbzlT.s 			page 63


 1916              	.LBE829:
 1917              	.LBE835:
 1918              	.LBE841:
 1919              	.LBE856:
  82:../../libdaisy/src/hid/midi.h ****     ~MidiHandler() {}
 1920              		.loc 4 82 19 is_stmt 0 view .LVU584
 1921 001e 274A     		ldr	r2, .L61+8
 1922              	.LBB857:
 1923              	.LBB842:
 1924              	.LBB836:
 1925              	.LBB830:
  36:../../libdaisy/src/hid/midi.h ****             tx     = {DSY_GPIOB, 6};
 1926              		.loc 4 36 20 view .LVU585
 1927 0020 0D88     		ldrh	r5, [r1]
 1928              	.LBE830:
 1929              	.LBE836:
 1930              	.LBE842:
 1931              	.LBE857:
  82:../../libdaisy/src/hid/midi.h ****     ~MidiHandler() {}
 1932              		.loc 4 82 19 view .LVU586
 1933 0022 C3F88823 		str	r2, [r3, #904]
 1934 0026 4FF60F02 		movw	r2, #63503
 1935              	.LBE863:
 1936              	.LBE869:
 1937              	.LBE903:
 1938              	.LBE907:
 1939              	.LBE911:
   7:sego.cpp      **** CsoHardware hw;
 1940              		.loc 14 7 13 view .LVU587
 1941 002a 254C     		ldr	r4, .L61+12
 1942              	.LBB912:
 1943              	.LBB908:
 1944              	.LBB904:
 1945              	.LBB870:
 1946              	.LBB864:
  82:../../libdaisy/src/hid/midi.h ****     ~MidiHandler() {}
 1947              		.loc 4 82 19 view .LVU588
 1948 002c A3F88C23 		strh	r2, [r3, #908]	@ movhi
 1949 0030 0722     		movs	r2, #7
 1950              	.LBB858:
 1951              	.LBB843:
 1952              	.LBB837:
 1953              	.LBB831:
  37:../../libdaisy/src/hid/midi.h ****         }
 1954              		.loc 4 37 20 view .LVU589
 1955 0032 8988     		ldrh	r1, [r1, #4]
  36:../../libdaisy/src/hid/midi.h ****             tx     = {DSY_GPIOB, 6};
 1956              		.loc 4 36 20 view .LVU590
 1957 0034 A3F88053 		strh	r5, [r3, #896]	@ movhi
  37:../../libdaisy/src/hid/midi.h ****         }
 1958              		.loc 4 37 13 is_stmt 1 view .LVU591
 1959              	.LBE831:
 1960              	.LBE837:
 1961              	.LBE843:
 1962              	.LBE858:
 1963              	.LBE864:
 1964              	.LBE870:
ARM GAS  C:\Users\ashgr\AppData\Local\Temp\ccMnbzlT.s 			page 64


 1965              	.LBE904:
 1966              	.LBE908:
 1967              	.LBE912:
   8:sego.cpp      **** Cso         osc1, osc2;
 1968              		.loc 14 8 13 is_stmt 0 view .LVU592
 1969 0038 224D     		ldr	r5, .L61+16
 1970              	.LBB913:
 1971              	.LBB909:
 1972              	.LBB905:
 1973              	.LBB871:
 1974              	.LBB865:
  82:../../libdaisy/src/hid/midi.h ****     ~MidiHandler() {}
 1975              		.loc 4 82 19 view .LVU593
 1976 003a 83F88E23 		strb	r2, [r3, #910]
 1977              	.LBE865:
 1978              	.LBE871:
 1979              	.LBE905:
 1980              	.LBE909:
 1981              	.LBE913:
   7:sego.cpp      **** CsoHardware hw;
 1982              		.loc 14 7 13 view .LVU594
 1983 003e 2246     		mov	r2, r4
 1984              	.LBB914:
 1985              	.LBB910:
 1986              	.LBB906:
 1987              	.LBB872:
 1988              	.LBB866:
 1989              	.LBB859:
 1990              	.LBB844:
 1991              	.LBB838:
 1992              	.LBB832:
  37:../../libdaisy/src/hid/midi.h ****         }
 1993              		.loc 4 37 20 view .LVU595
 1994 0040 A3F88213 		strh	r1, [r3, #898]	@ movhi
 1995              	.LVL79:
  37:../../libdaisy/src/hid/midi.h ****         }
 1996              		.loc 4 37 20 view .LVU596
 1997              	.LBE832:
 1998              	.LBE838:
 1999              	.LBE844:
 2000              	.LBE859:
 2001              	.LBB860:
 2002              	.LBI847:
  24:../../libdaisy/src/hid/midi.h ****     ~MidiUartTransport() {}
 2003              		.loc 4 24 5 is_stmt 1 view .LVU597
 2004              	.LBB851:
 2005              	.LBI848:
 2006              		.loc 18 87 5 view .LVU598
 2007              		.loc 18 87 5 is_stmt 0 view .LVU599
 2008              	.LBE851:
 2009              	.LBE860:
 2010              	.LBE866:
 2011              	.LBE872:
 2012              	.LBE906:
 2013              	.LBE910:
 2014              	.LBE914:
   7:sego.cpp      **** CsoHardware hw;
ARM GAS  C:\Users\ashgr\AppData\Local\Temp\ccMnbzlT.s 			page 65


 2015              		.loc 14 7 13 view .LVU600
 2016 0044 2049     		ldr	r1, .L61+20
 2017 0046 FFF7FEFF 		bl	__aeabi_atexit
 2018              	.LVL80:
 2019              	.LBB915:
 2020              	.LBI915:
  33:../../DaisySP/Source/Synthesis/cso.h ****     ~Cso() {}
 2021              		.loc 13 33 5 is_stmt 1 view .LVU601
  33:../../DaisySP/Source/Synthesis/cso.h ****     ~Cso() {}
 2022              		.loc 13 33 5 is_stmt 0 view .LVU602
 2023              	.LBE915:
   8:sego.cpp      **** Cso         osc1, osc2;
 2024              		.loc 14 8 13 view .LVU603
 2025 004a 2246     		mov	r2, r4
 2026 004c 2946     		mov	r1, r5
 2027 004e 1F48     		ldr	r0, .L61+24
 2028 0050 FFF7FEFF 		bl	__aeabi_atexit
 2029              	.LVL81:
 2030              	.LBB916:
 2031              	.LBI916:
  33:../../DaisySP/Source/Synthesis/cso.h ****     ~Cso() {}
 2032              		.loc 13 33 5 is_stmt 1 view .LVU604
  33:../../DaisySP/Source/Synthesis/cso.h ****     ~Cso() {}
 2033              		.loc 13 33 5 is_stmt 0 view .LVU605
 2034              	.LBE916:
   8:sego.cpp      **** Cso         osc1, osc2;
 2035              		.loc 14 8 19 view .LVU606
 2036 0054 2946     		mov	r1, r5
   9:sego.cpp      **** Parameter   p_freq1, p_freq1_ratio, p_width, p_ratio, p_feedback, p_freq2, p_offset, p_cv1;
 2037              		.loc 14 9 13 view .LVU607
 2038 0056 1E4D     		ldr	r5, .L61+28
   8:sego.cpp      **** Cso         osc1, osc2;
 2039              		.loc 14 8 19 view .LVU608
 2040 0058 2246     		mov	r2, r4
 2041 005a 1E48     		ldr	r0, .L61+32
 2042 005c FFF7FEFF 		bl	__aeabi_atexit
 2043              	.LVL82:
 2044              	.LBB917:
 2045              	.LBI917:
  25:../../libdaisy/src/hid/parameter.h ****     /** Destructor */
 2046              		.loc 1 25 5 is_stmt 1 view .LVU609
 2047              	.LBB918:
 2048              	.LBB919:
 2049              	.LBI919:
  21:../../libdaisy/src/hid/ctrl.h ****     /** destructor */
 2050              		.loc 2 21 5 view .LVU610
  21:../../libdaisy/src/hid/ctrl.h ****     /** destructor */
 2051              		.loc 2 21 5 is_stmt 0 view .LVU611
 2052              	.LBE919:
 2053              	.LBE918:
 2054              	.LBE917:
   9:sego.cpp      **** Parameter   p_freq1, p_freq1_ratio, p_width, p_ratio, p_feedback, p_freq2, p_offset, p_cv1;
 2055              		.loc 14 9 13 view .LVU612
 2056 0060 2246     		mov	r2, r4
 2057 0062 2946     		mov	r1, r5
 2058 0064 1C48     		ldr	r0, .L61+36
 2059 0066 FFF7FEFF 		bl	__aeabi_atexit
ARM GAS  C:\Users\ashgr\AppData\Local\Temp\ccMnbzlT.s 			page 66


 2060              	.LVL83:
 2061              	.LBB920:
 2062              	.LBI920:
  25:../../libdaisy/src/hid/parameter.h ****     /** Destructor */
 2063              		.loc 1 25 5 is_stmt 1 view .LVU613
 2064              	.LBB921:
 2065              	.LBB922:
 2066              	.LBI922:
  21:../../libdaisy/src/hid/ctrl.h ****     /** destructor */
 2067              		.loc 2 21 5 view .LVU614
  21:../../libdaisy/src/hid/ctrl.h ****     /** destructor */
 2068              		.loc 2 21 5 is_stmt 0 view .LVU615
 2069              	.LBE922:
 2070              	.LBE921:
 2071              	.LBE920:
   9:sego.cpp      **** Parameter   p_freq1, p_freq1_ratio, p_width, p_ratio, p_feedback, p_freq2, p_offset, p_cv1;
 2072              		.loc 14 9 22 view .LVU616
 2073 006a 2246     		mov	r2, r4
 2074 006c 2946     		mov	r1, r5
 2075 006e 1B48     		ldr	r0, .L61+40
 2076 0070 FFF7FEFF 		bl	__aeabi_atexit
 2077              	.LVL84:
 2078              	.LBB923:
 2079              	.LBI923:
  25:../../libdaisy/src/hid/parameter.h ****     /** Destructor */
 2080              		.loc 1 25 5 is_stmt 1 view .LVU617
 2081              	.LBB924:
 2082              	.LBB925:
 2083              	.LBI925:
  21:../../libdaisy/src/hid/ctrl.h ****     /** destructor */
 2084              		.loc 2 21 5 view .LVU618
  21:../../libdaisy/src/hid/ctrl.h ****     /** destructor */
 2085              		.loc 2 21 5 is_stmt 0 view .LVU619
 2086              	.LBE925:
 2087              	.LBE924:
 2088              	.LBE923:
   9:sego.cpp      **** Parameter   p_freq1, p_freq1_ratio, p_width, p_ratio, p_feedback, p_freq2, p_offset, p_cv1;
 2089              		.loc 14 9 37 view .LVU620
 2090 0074 2246     		mov	r2, r4
 2091 0076 2946     		mov	r1, r5
 2092 0078 1948     		ldr	r0, .L61+44
 2093 007a FFF7FEFF 		bl	__aeabi_atexit
 2094              	.LVL85:
 2095              	.LBB926:
 2096              	.LBI926:
  25:../../libdaisy/src/hid/parameter.h ****     /** Destructor */
 2097              		.loc 1 25 5 is_stmt 1 view .LVU621
 2098              	.LBB927:
 2099              	.LBB928:
 2100              	.LBI928:
  21:../../libdaisy/src/hid/ctrl.h ****     /** destructor */
 2101              		.loc 2 21 5 view .LVU622
  21:../../libdaisy/src/hid/ctrl.h ****     /** destructor */
 2102              		.loc 2 21 5 is_stmt 0 view .LVU623
 2103              	.LBE928:
 2104              	.LBE927:
 2105              	.LBE926:
ARM GAS  C:\Users\ashgr\AppData\Local\Temp\ccMnbzlT.s 			page 67


   9:sego.cpp      **** Parameter   p_freq1, p_freq1_ratio, p_width, p_ratio, p_feedback, p_freq2, p_offset, p_cv1;
 2106              		.loc 14 9 46 view .LVU624
 2107 007e 2246     		mov	r2, r4
 2108 0080 2946     		mov	r1, r5
 2109 0082 1848     		ldr	r0, .L61+48
 2110 0084 FFF7FEFF 		bl	__aeabi_atexit
 2111              	.LVL86:
 2112              	.LBB929:
 2113              	.LBI929:
  25:../../libdaisy/src/hid/parameter.h ****     /** Destructor */
 2114              		.loc 1 25 5 is_stmt 1 view .LVU625
 2115              	.LBB930:
 2116              	.LBB931:
 2117              	.LBI931:
  21:../../libdaisy/src/hid/ctrl.h ****     /** destructor */
 2118              		.loc 2 21 5 view .LVU626
  21:../../libdaisy/src/hid/ctrl.h ****     /** destructor */
 2119              		.loc 2 21 5 is_stmt 0 view .LVU627
 2120              	.LBE931:
 2121              	.LBE930:
 2122              	.LBE929:
   9:sego.cpp      **** Parameter   p_freq1, p_freq1_ratio, p_width, p_ratio, p_feedback, p_freq2, p_offset, p_cv1;
 2123              		.loc 14 9 55 view .LVU628
 2124 0088 2246     		mov	r2, r4
 2125 008a 2946     		mov	r1, r5
 2126 008c 1648     		ldr	r0, .L61+52
 2127 008e FFF7FEFF 		bl	__aeabi_atexit
 2128              	.LVL87:
 2129              	.LBB932:
 2130              	.LBI932:
  25:../../libdaisy/src/hid/parameter.h ****     /** Destructor */
 2131              		.loc 1 25 5 is_stmt 1 view .LVU629
 2132              	.LBB933:
 2133              	.LBB934:
 2134              	.LBI934:
  21:../../libdaisy/src/hid/ctrl.h ****     /** destructor */
 2135              		.loc 2 21 5 view .LVU630
  21:../../libdaisy/src/hid/ctrl.h ****     /** destructor */
 2136              		.loc 2 21 5 is_stmt 0 view .LVU631
 2137              	.LBE934:
 2138              	.LBE933:
 2139              	.LBE932:
   9:sego.cpp      **** Parameter   p_freq1, p_freq1_ratio, p_width, p_ratio, p_feedback, p_freq2, p_offset, p_cv1;
 2140              		.loc 14 9 67 view .LVU632
 2141 0092 2246     		mov	r2, r4
 2142 0094 2946     		mov	r1, r5
 2143 0096 1548     		ldr	r0, .L61+56
 2144 0098 FFF7FEFF 		bl	__aeabi_atexit
 2145              	.LVL88:
 2146              	.LBB935:
 2147              	.LBI935:
  25:../../libdaisy/src/hid/parameter.h ****     /** Destructor */
 2148              		.loc 1 25 5 is_stmt 1 view .LVU633
 2149              	.LBB936:
 2150              	.LBB937:
 2151              	.LBI937:
  21:../../libdaisy/src/hid/ctrl.h ****     /** destructor */
ARM GAS  C:\Users\ashgr\AppData\Local\Temp\ccMnbzlT.s 			page 68


 2152              		.loc 2 21 5 view .LVU634
  21:../../libdaisy/src/hid/ctrl.h ****     /** destructor */
 2153              		.loc 2 21 5 is_stmt 0 view .LVU635
 2154              	.LBE937:
 2155              	.LBE936:
 2156              	.LBE935:
   9:sego.cpp      **** Parameter   p_freq1, p_freq1_ratio, p_width, p_ratio, p_feedback, p_freq2, p_offset, p_cv1;
 2157              		.loc 14 9 76 view .LVU636
 2158 009c 2246     		mov	r2, r4
 2159 009e 2946     		mov	r1, r5
 2160 00a0 1348     		ldr	r0, .L61+60
 2161 00a2 FFF7FEFF 		bl	__aeabi_atexit
 2162              	.LVL89:
 2163              	.LBB938:
 2164              	.LBI938:
  25:../../libdaisy/src/hid/parameter.h ****     /** Destructor */
 2165              		.loc 1 25 5 is_stmt 1 view .LVU637
 2166              	.LBB939:
 2167              	.LBB940:
 2168              	.LBI940:
  21:../../libdaisy/src/hid/ctrl.h ****     /** destructor */
 2169              		.loc 2 21 5 view .LVU638
  21:../../libdaisy/src/hid/ctrl.h ****     /** destructor */
 2170              		.loc 2 21 5 is_stmt 0 view .LVU639
 2171              	.LBE940:
 2172              	.LBE939:
 2173              	.LBE938:
   9:sego.cpp      **** Parameter   p_freq1, p_freq1_ratio, p_width, p_ratio, p_feedback, p_freq2, p_offset, p_cv1;
 2174              		.loc 14 9 86 view .LVU640
 2175 00a6 2246     		mov	r2, r4
 2176 00a8 2946     		mov	r1, r5
 2177 00aa 1248     		ldr	r0, .L61+64
 2178              	.LBE941:
 2179              	.LBE943:
 2180              		.loc 14 199 1 view .LVU641
 2181 00ac BDE83840 		pop	{r3, r4, r5, lr}
 2182              		.cfi_restore 14
 2183              		.cfi_restore 5
 2184              		.cfi_restore 4
 2185              		.cfi_restore 3
 2186              		.cfi_def_cfa_offset 0
 2187              	.LBB944:
 2188              	.LBB942:
   9:sego.cpp      **** Parameter   p_freq1, p_freq1_ratio, p_width, p_ratio, p_feedback, p_freq2, p_offset, p_cv1;
 2189              		.loc 14 9 86 view .LVU642
 2190 00b0 FFF7FEBF 		b	__aeabi_atexit
 2191              	.LVL90:
 2192              	.L62:
 2193              		.align	2
 2194              	.L61:
 2195 00b4 00000000 		.word	hw
 2196 00b8 00000000 		.word	.LANCHOR24
 2197 00bc 80707FF0 		.word	-260083584
 2198 00c0 00000000 		.word	__dso_handle
 2199 00c4 00000000 		.word	_ZN7daisysp3CsoD1Ev
 2200 00c8 00000000 		.word	_ZN5daisy11CsoHardwareD1Ev
 2201 00cc 00000000 		.word	.LANCHOR8
ARM GAS  C:\Users\ashgr\AppData\Local\Temp\ccMnbzlT.s 			page 69


 2202 00d0 00000000 		.word	_ZN5daisy9ParameterD1Ev
 2203 00d4 00000000 		.word	.LANCHOR9
 2204 00d8 00000000 		.word	.LANCHOR0
 2205 00dc 00000000 		.word	.LANCHOR1
 2206 00e0 00000000 		.word	.LANCHOR2
 2207 00e4 00000000 		.word	.LANCHOR3
 2208 00e8 00000000 		.word	.LANCHOR4
 2209 00ec 00000000 		.word	.LANCHOR5
 2210 00f0 00000000 		.word	.LANCHOR6
 2211 00f4 00000000 		.word	.LANCHOR7
 2212              	.LBE942:
 2213              	.LBE944:
 2214              		.cfi_endproc
 2215              	.LFE4900:
 2217              		.section	.init_array,"aw",%init_array
 2218              		.align	2
 2219 0000 00000000 		.word	_GLOBAL__sub_I_hw(target1)
 2220              		.global	sig2
 2221              		.global	sig1
 2222              		.global	p_cv1
 2223              		.global	p_offset
 2224              		.global	p_freq2
 2225              		.global	p_feedback
 2226              		.global	p_ratio
 2227              		.global	p_width
 2228              		.global	p_freq1_ratio
 2229              		.global	p_freq1
 2230              		.global	osc2
 2231              		.global	osc1
 2232              		.global	hw
 2233              		.section	.rodata
 2234              		.align	2
 2235              		.set	.LANCHOR24,. + 0
 2236              	.LC0:
 2237 0000 01       		.byte	1
 2238 0001 07       		.byte	7
 2239 0002 0000     		.space	2
 2240              	.LC1:
 2241 0004 01       		.byte	1
 2242 0005 06       		.byte	6
 2243              		.section	.bss._ZL11freq1_ratio,"aw",%nobits
 2244              		.align	2
 2245              		.set	.LANCHOR15,. + 0
 2248              	_ZL11freq1_ratio:
 2249 0000 00000000 		.space	4
 2250              		.section	.bss._ZL3cv1,"aw",%nobits
 2251              		.align	2
 2252              		.set	.LANCHOR21,. + 0
 2255              	_ZL3cv1:
 2256 0000 00000000 		.space	4
 2257              		.section	.bss._ZL4mode,"aw",%nobits
 2258              		.align	2
 2259              		.set	.LANCHOR11,. + 0
 2262              	_ZL4mode:
 2263 0000 00000000 		.space	4
 2264              		.section	.bss._ZL5freq1,"aw",%nobits
 2265              		.align	2
ARM GAS  C:\Users\ashgr\AppData\Local\Temp\ccMnbzlT.s 			page 70


 2266              		.set	.LANCHOR14,. + 0
 2269              	_ZL5freq1:
 2270 0000 00000000 		.space	4
 2271              		.section	.bss._ZL5freq2,"aw",%nobits
 2272              		.align	2
 2273              		.set	.LANCHOR19,. + 0
 2276              	_ZL5freq2:
 2277 0000 00000000 		.space	4
 2278              		.section	.bss._ZL5range,"aw",%nobits
 2279              		.align	2
 2280              		.set	.LANCHOR10,. + 0
 2283              	_ZL5range:
 2284 0000 00000000 		.space	4
 2285              		.section	.bss._ZL5ratio,"aw",%nobits
 2286              		.align	2
 2287              		.set	.LANCHOR17,. + 0
 2290              	_ZL5ratio:
 2291 0000 00000000 		.space	4
 2292              		.section	.bss._ZL5scale,"aw",%nobits
 2293              		.align	2
 2294              		.set	.LANCHOR12,. + 0
 2297              	_ZL5scale:
 2298 0000 00000000 		.space	4
 2299              		.section	.bss._ZL5shift,"aw",%nobits
 2300              		.align	2
 2301              		.set	.LANCHOR13,. + 0
 2304              	_ZL5shift:
 2305 0000 00000000 		.space	4
 2306              		.section	.bss._ZL5width,"aw",%nobits
 2307              		.align	2
 2308              		.set	.LANCHOR16,. + 0
 2311              	_ZL5width:
 2312 0000 00000000 		.space	4
 2313              		.section	.bss._ZL6offset,"aw",%nobits
 2314              		.align	2
 2315              		.set	.LANCHOR20,. + 0
 2318              	_ZL6offset:
 2319 0000 00000000 		.space	4
 2320              		.section	.bss._ZL8feedback,"aw",%nobits
 2321              		.align	2
 2322              		.set	.LANCHOR18,. + 0
 2325              	_ZL8feedback:
 2326 0000 00000000 		.space	4
 2327              		.section	.bss.hw,"aw",%nobits
 2328              		.align	2
 2331              	hw:
 2332 0000 00000000 		.space	37776
 2332      00000000 
 2332      00000000 
 2332      00000000 
 2332      00000000 
 2333              		.section	.bss.osc1,"aw",%nobits
 2334              		.align	2
 2335              		.set	.LANCHOR8,. + 0
 2338              	osc1:
 2339 0000 00000000 		.space	48
 2339      00000000 
ARM GAS  C:\Users\ashgr\AppData\Local\Temp\ccMnbzlT.s 			page 71


 2339      00000000 
 2339      00000000 
 2339      00000000 
 2340              		.section	.bss.osc2,"aw",%nobits
 2341              		.align	2
 2342              		.set	.LANCHOR9,. + 0
 2345              	osc2:
 2346 0000 00000000 		.space	48
 2346      00000000 
 2346      00000000 
 2346      00000000 
 2346      00000000 
 2347              		.section	.bss.p_cv1,"aw",%nobits
 2348              		.align	2
 2349              		.set	.LANCHOR7,. + 0
 2352              	p_cv1:
 2353 0000 00000000 		.space	56
 2353      00000000 
 2353      00000000 
 2353      00000000 
 2353      00000000 
 2354              		.section	.bss.p_feedback,"aw",%nobits
 2355              		.align	2
 2356              		.set	.LANCHOR4,. + 0
 2359              	p_feedback:
 2360 0000 00000000 		.space	56
 2360      00000000 
 2360      00000000 
 2360      00000000 
 2360      00000000 
 2361              		.section	.bss.p_freq1,"aw",%nobits
 2362              		.align	2
 2363              		.set	.LANCHOR0,. + 0
 2366              	p_freq1:
 2367 0000 00000000 		.space	56
 2367      00000000 
 2367      00000000 
 2367      00000000 
 2367      00000000 
 2368              		.section	.bss.p_freq1_ratio,"aw",%nobits
 2369              		.align	2
 2370              		.set	.LANCHOR1,. + 0
 2373              	p_freq1_ratio:
 2374 0000 00000000 		.space	56
 2374      00000000 
 2374      00000000 
 2374      00000000 
 2374      00000000 
 2375              		.section	.bss.p_freq2,"aw",%nobits
 2376              		.align	2
 2377              		.set	.LANCHOR5,. + 0
 2380              	p_freq2:
 2381 0000 00000000 		.space	56
 2381      00000000 
 2381      00000000 
 2381      00000000 
 2381      00000000 
ARM GAS  C:\Users\ashgr\AppData\Local\Temp\ccMnbzlT.s 			page 72


 2382              		.section	.bss.p_offset,"aw",%nobits
 2383              		.align	2
 2384              		.set	.LANCHOR6,. + 0
 2387              	p_offset:
 2388 0000 00000000 		.space	56
 2388      00000000 
 2388      00000000 
 2388      00000000 
 2388      00000000 
 2389              		.section	.bss.p_ratio,"aw",%nobits
 2390              		.align	2
 2391              		.set	.LANCHOR3,. + 0
 2394              	p_ratio:
 2395 0000 00000000 		.space	56
 2395      00000000 
 2395      00000000 
 2395      00000000 
 2395      00000000 
 2396              		.section	.bss.p_width,"aw",%nobits
 2397              		.align	2
 2398              		.set	.LANCHOR2,. + 0
 2401              	p_width:
 2402 0000 00000000 		.space	56
 2402      00000000 
 2402      00000000 
 2402      00000000 
 2402      00000000 
 2403              		.section	.bss.sig1,"aw",%nobits
 2404              		.align	2
 2405              		.set	.LANCHOR22,. + 0
 2408              	sig1:
 2409 0000 00000000 		.space	4
 2410              		.section	.bss.sig2,"aw",%nobits
 2411              		.align	2
 2412              		.set	.LANCHOR23,. + 0
 2415              	sig2:
 2416 0000 00000000 		.space	4
 2417              		.text
 2418              	.Letext0:
 2419              		.file 20 "c:\\users\\ashgr\\downloads\\daisytoolchain-0.3.1\\windows\\arm-none-eabi\\include\\mach
 2420              		.file 21 "c:\\users\\ashgr\\downloads\\daisytoolchain-0.3.1\\windows\\arm-none-eabi\\include\\sys\
 2421              		.file 22 "c:\\users\\ashgr\\downloads\\daisytoolchain-0.3.1\\windows\\arm-none-eabi\\include\\stdi
 2422              		.file 23 "c:\\users\\ashgr\\downloads\\daisytoolchain-0.3.1\\windows\\lib\\gcc\\arm-none-eabi\\10.
 2423              		.file 24 "c:\\users\\ashgr\\downloads\\daisytoolchain-0.3.1\\windows\\arm-none-eabi\\include\\c++\
 2424              		.file 25 "c:\\users\\ashgr\\downloads\\daisytoolchain-0.3.1\\windows\\arm-none-eabi\\include\\c++\
 2425              		.file 26 "c:\\users\\ashgr\\downloads\\daisytoolchain-0.3.1\\windows\\arm-none-eabi\\include\\c++\
 2426              		.file 27 "c:\\users\\ashgr\\downloads\\daisytoolchain-0.3.1\\windows\\arm-none-eabi\\include\\c++\
 2427              		.file 28 "c:\\users\\ashgr\\downloads\\daisytoolchain-0.3.1\\windows\\arm-none-eabi\\include\\c++\
 2428              		.file 29 "c:\\users\\ashgr\\downloads\\daisytoolchain-0.3.1\\windows\\arm-none-eabi\\include\\c++\
 2429              		.file 30 "c:\\users\\ashgr\\downloads\\daisytoolchain-0.3.1\\windows\\arm-none-eabi\\include\\c++\
 2430              		.file 31 "c:\\users\\ashgr\\downloads\\daisytoolchain-0.3.1\\windows\\arm-none-eabi\\include\\c++\
 2431              		.file 32 "c:\\users\\ashgr\\downloads\\daisytoolchain-0.3.1\\windows\\arm-none-eabi\\include\\c++\
 2432              		.file 33 "c:\\users\\ashgr\\downloads\\daisytoolchain-0.3.1\\windows\\arm-none-eabi\\include\\c++\
 2433              		.file 34 "c:\\users\\ashgr\\downloads\\daisytoolchain-0.3.1\\windows\\arm-none-eabi\\include\\c++\
 2434              		.file 35 "c:\\users\\ashgr\\downloads\\daisytoolchain-0.3.1\\windows\\arm-none-eabi\\include\\c++\
 2435              		.file 36 "c:\\users\\ashgr\\downloads\\daisytoolchain-0.3.1\\windows\\arm-none-eabi\\include\\c++\
 2436              		.file 37 "c:\\users\\ashgr\\downloads\\daisytoolchain-0.3.1\\windows\\arm-none-eabi\\include\\c++\
ARM GAS  C:\Users\ashgr\AppData\Local\Temp\ccMnbzlT.s 			page 73


 2437              		.file 38 "c:\\users\\ashgr\\downloads\\daisytoolchain-0.3.1\\windows\\arm-none-eabi\\include\\c++\
 2438              		.file 39 "c:\\users\\ashgr\\downloads\\daisytoolchain-0.3.1\\windows\\arm-none-eabi\\include\\c++\
 2439              		.file 40 "c:\\users\\ashgr\\downloads\\daisytoolchain-0.3.1\\windows\\arm-none-eabi\\include\\c++\
 2440              		.file 41 "c:\\users\\ashgr\\downloads\\daisytoolchain-0.3.1\\windows\\arm-none-eabi\\include\\c++\
 2441              		.file 42 "c:\\users\\ashgr\\downloads\\daisytoolchain-0.3.1\\windows\\arm-none-eabi\\include\\sys\
 2442              		.file 43 "c:\\users\\ashgr\\downloads\\daisytoolchain-0.3.1\\windows\\arm-none-eabi\\include\\sys\
 2443              		.file 44 "c:\\users\\ashgr\\downloads\\daisytoolchain-0.3.1\\windows\\arm-none-eabi\\include\\sys\
 2444              		.file 45 "c:\\users\\ashgr\\downloads\\daisytoolchain-0.3.1\\windows\\arm-none-eabi\\include\\math
 2445              		.file 46 "c:\\users\\ashgr\\downloads\\daisytoolchain-0.3.1\\windows\\arm-none-eabi\\include\\stdl
 2446              		.file 47 "c:\\users\\ashgr\\downloads\\daisytoolchain-0.3.1\\windows\\arm-none-eabi\\include\\c++\
 2447              		.file 48 "c:\\users\\ashgr\\downloads\\daisytoolchain-0.3.1\\windows\\arm-none-eabi\\include\\c++\
 2448              		.file 49 "../../libdaisy/src/daisy_core.h"
 2449              		.file 50 "../../libdaisy/src/per/tim.h"
 2450              		.file 51 "../../libdaisy/src/per/sai.h"
 2451              		.file 52 "../../libdaisy/src/hid/MidiEvent.h"
 2452              		.file 53 "../../libdaisy/src/util/wav_format.h"
 2453              		.file 54 "../../libdaisy/src/util/color.h"
 2454              		.file 55 "../../libdaisy/src/per/gpio.h"
 2455              		.file 56 "../../libdaisy/src/dev/sdram.h"
 2456              		.file 57 "c:\\users\\ashgr\\downloads\\daisytoolchain-0.3.1\\windows\\lib\\gcc\\arm-none-eabi\\10.
 2457              		.file 58 "c:\\users\\ashgr\\downloads\\daisytoolchain-0.3.1\\windows\\arm-none-eabi\\include\\stdi
 2458              		.file 59 "../../DaisySP/Source/Control/adenv.h"
 2459              		.file 60 "c:\\users\\ashgr\\downloads\\daisytoolchain-0.3.1\\windows\\arm-none-eabi\\include\\wcha
 2460              		.file 61 "c:\\users\\ashgr\\downloads\\daisytoolchain-0.3.1\\windows\\arm-none-eabi\\include\\loca
 2461              		.file 62 "c:\\users\\ashgr\\downloads\\daisytoolchain-0.3.1\\windows\\arm-none-eabi\\include\\stri
 2462              		.file 63 "../../libdaisy/src/dev/sr_595.h"
 2463              		.file 64 "<built-in>"
ARM GAS  C:\Users\ashgr\AppData\Local\Temp\ccMnbzlT.s 			page 74

